
objs/tests/parallel-two.elf:     file format elf32-littlearm


Disassembly of section .text:

00008000 <__code_start__>:
    8000:	e3a00013 	mov	r0, #19
    8004:	e3800080 	orr	r0, r0, #128	@ 0x80
    8008:	e129f000 	msr	CPSR_fc, r0
    800c:	e3a01000 	mov	r1, #0
    8010:	ee071f95 	mcr	15, 0, r1, cr7, cr5, {4}
    8014:	e3a0d302 	mov	sp, #134217728	@ 0x8000000
    8018:	e3a0b000 	mov	fp, #0
    801c:	eb000a8a 	bl	aa4c <_cstart>
    8020:	eb000ae8 	bl	abc8 <rpi_reboot>

00008024 <PUT32>:
    8024:	e5801000 	str	r1, [r0]
    8028:	e12fff1e 	bx	lr

0000802c <GET32>:
    802c:	e5900000 	ldr	r0, [r0]
    8030:	e12fff1e 	bx	lr

00008034 <BRANCHTO>:
    8034:	e12fff10 	bx	r0

00008038 <notmain>:
    8038:	e92d4070 	push	{r4, r5, r6, lr}
    803c:	eb000031 	bl	8108 <parallel_setup_read>
    8040:	e59f00ac 	ldr	r0, [pc, #172]	@ 80f4 <notmain+0xbc>
    8044:	eb000910 	bl	a48c <printk>
    8048:	e3a04000 	mov	r4, #0
    804c:	ea000004 	b	8064 <notmain+0x2c>
    8050:	eb00003f 	bl	8154 <parallel_read_byte>
    8054:	e1a01000 	mov	r1, r0
    8058:	e59f0098 	ldr	r0, [pc, #152]	@ 80f8 <notmain+0xc0>
    805c:	eb00090a 	bl	a48c <printk>
    8060:	e2844001 	add	r4, r4, #1
    8064:	e3540007 	cmp	r4, #7
    8068:	9afffff8 	bls	8050 <notmain+0x18>
    806c:	eb000072 	bl	823c <parallel_setup_write>
    8070:	e59f0084 	ldr	r0, [pc, #132]	@ 80fc <notmain+0xc4>
    8074:	eb000904 	bl	a48c <printk>
    8078:	e3a04000 	mov	r4, #0
    807c:	ea000006 	b	809c <notmain+0x64>
    8080:	e59f5078 	ldr	r5, [pc, #120]	@ 8100 <notmain+0xc8>
    8084:	e7d51004 	ldrb	r1, [r5, r4]
    8088:	e59f0074 	ldr	r0, [pc, #116]	@ 8104 <notmain+0xcc>
    808c:	eb0008fe 	bl	a48c <printk>
    8090:	e7d50004 	ldrb	r0, [r5, r4]
    8094:	eb00007b 	bl	8288 <parallel_write_byte>
    8098:	e2844001 	add	r4, r4, #1
    809c:	e3540007 	cmp	r4, #7
    80a0:	9afffff6 	bls	8080 <notmain+0x48>
    80a4:	eb000017 	bl	8108 <parallel_setup_read>
    80a8:	e59f0044 	ldr	r0, [pc, #68]	@ 80f4 <notmain+0xbc>
    80ac:	eb0008f6 	bl	a48c <printk>
    80b0:	e3a04000 	mov	r4, #0
    80b4:	e3540001 	cmp	r4, #1
    80b8:	8a000005 	bhi	80d4 <notmain+0x9c>
    80bc:	eb000024 	bl	8154 <parallel_read_byte>
    80c0:	e1a01000 	mov	r1, r0
    80c4:	e59f002c 	ldr	r0, [pc, #44]	@ 80f8 <notmain+0xc0>
    80c8:	eb0008ef 	bl	a48c <printk>
    80cc:	e2844001 	add	r4, r4, #1
    80d0:	eafffff7 	b	80b4 <notmain+0x7c>
    80d4:	eb000058 	bl	823c <parallel_setup_write>
    80d8:	e59f001c 	ldr	r0, [pc, #28]	@ 80fc <notmain+0xc4>
    80dc:	eb0008ea 	bl	a48c <printk>
    80e0:	e3a00000 	mov	r0, #0
    80e4:	eb000067 	bl	8288 <parallel_write_byte>
    80e8:	e3a000ff 	mov	r0, #255	@ 0xff
    80ec:	eb000065 	bl	8288 <parallel_write_byte>
    80f0:	eb000a15 	bl	a94c <clean_reboot>
    80f4:	0000b460 	.word	0x0000b460
    80f8:	0000b478 	.word	0x0000b478
    80fc:	0000b490 	.word	0x0000b490
    8100:	0000c8c0 	.word	0x0000c8c0
    8104:	0000b4a8 	.word	0x0000b4a8

00008108 <parallel_setup_read>:
    8108:	e92d4010 	push	{r4, lr}
    810c:	e3a04000 	mov	r4, #0
    8110:	ea000004 	b	8128 <parallel_setup_read+0x20>
    8114:	e1a00004 	mov	r0, r4
    8118:	eb000b24 	bl	adb0 <gpio_set_pullup>
    811c:	e1a00004 	mov	r0, r4
    8120:	eb00086d 	bl	a2dc <gpio_set_input>
    8124:	e2844001 	add	r4, r4, #1
    8128:	e3540007 	cmp	r4, #7
    812c:	9afffff8 	bls	8114 <parallel_setup_read+0xc>
    8130:	e3a00014 	mov	r0, #20
    8134:	eb000854 	bl	a28c <gpio_set_off>
    8138:	e3a00014 	mov	r0, #20
    813c:	eb00082d 	bl	a1f8 <gpio_set_output>
    8140:	e3a00015 	mov	r0, #21
    8144:	eb000b1d 	bl	adc0 <gpio_set_pulldown>
    8148:	e3a00015 	mov	r0, #21
    814c:	eb000862 	bl	a2dc <gpio_set_input>
    8150:	e8bd8010 	pop	{r4, pc}

00008154 <parallel_read_byte>:
    8154:	e92d4010 	push	{r4, lr}
    8158:	e59f3048 	ldr	r3, [pc, #72]	@ 81a8 <parallel_read_byte+0x54>
    815c:	e5d31000 	ldrb	r1, [r3]
    8160:	e2211001 	eor	r1, r1, #1
    8164:	e3a00014 	mov	r0, #20
    8168:	eb000854 	bl	a2c0 <gpio_write>
    816c:	e3a00015 	mov	r0, #21
    8170:	eb00086f 	bl	a334 <gpio_read>
    8174:	e59f302c 	ldr	r3, [pc, #44]	@ 81a8 <parallel_read_byte+0x54>
    8178:	e5d33000 	ldrb	r3, [r3]
    817c:	e1500003 	cmp	r0, r3
    8180:	0afffff9 	beq	816c <parallel_read_byte+0x18>
    8184:	eb000a7e 	bl	ab84 <dev_barrier>
    8188:	e59f2018 	ldr	r2, [pc, #24]	@ 81a8 <parallel_read_byte+0x54>
    818c:	e5d23000 	ldrb	r3, [r2]
    8190:	e2233001 	eor	r3, r3, #1
    8194:	e5c23000 	strb	r3, [r2]
    8198:	e59f000c 	ldr	r0, [pc, #12]	@ 81ac <parallel_read_byte+0x58>
    819c:	ebffffa2 	bl	802c <GET32>
    81a0:	e6ef0070 	uxtb	r0, r0
    81a4:	e8bd8010 	pop	{r4, pc}
    81a8:	0000d28c 	.word	0x0000d28c
    81ac:	20200034 	.word	0x20200034

000081b0 <parallel_read_32>:
    81b0:	e92d4010 	push	{r4, lr}
    81b4:	ebffffe6 	bl	8154 <parallel_read_byte>
    81b8:	e1a04000 	mov	r4, r0
    81bc:	ebffffe4 	bl	8154 <parallel_read_byte>
    81c0:	e1844400 	orr	r4, r4, r0, lsl #8
    81c4:	ebffffe2 	bl	8154 <parallel_read_byte>
    81c8:	e1844800 	orr	r4, r4, r0, lsl #16
    81cc:	ebffffe0 	bl	8154 <parallel_read_byte>
    81d0:	e1840c00 	orr	r0, r4, r0, lsl #24
    81d4:	e8bd8010 	pop	{r4, pc}

000081d8 <parallel_read_n>:
    81d8:	e92d4070 	push	{r4, r5, r6, lr}
    81dc:	e24dd008 	sub	sp, sp, #8
    81e0:	e1a06000 	mov	r6, r0
    81e4:	e1a05001 	mov	r5, r1
    81e8:	e2114003 	ands	r4, r1, #3
    81ec:	0a00000a 	beq	821c <parallel_read_n+0x44>
    81f0:	e59f3034 	ldr	r3, [pc, #52]	@ 822c <parallel_read_n+0x54>
    81f4:	e58d3000 	str	r3, [sp]
    81f8:	e3a03032 	mov	r3, #50	@ 0x32
    81fc:	e59f202c 	ldr	r2, [pc, #44]	@ 8230 <parallel_read_n+0x58>
    8200:	e59f102c 	ldr	r1, [pc, #44]	@ 8234 <parallel_read_n+0x5c>
    8204:	e59f002c 	ldr	r0, [pc, #44]	@ 8238 <parallel_read_n+0x60>
    8208:	eb00089f 	bl	a48c <printk>
    820c:	eb0009ce 	bl	a94c <clean_reboot>
    8210:	ebffffe6 	bl	81b0 <parallel_read_32>
    8214:	e7860104 	str	r0, [r6, r4, lsl #2]
    8218:	e2844001 	add	r4, r4, #1
    821c:	e1540125 	cmp	r4, r5, lsr #2
    8220:	3afffffa 	bcc	8210 <parallel_read_n+0x38>
    8224:	e28dd008 	add	sp, sp, #8
    8228:	e8bd8070 	pop	{r4, r5, r6, pc}
    822c:	0000b4fc 	.word	0x0000b4fc
    8230:	0000c4d4 	.word	0x0000c4d4
    8234:	0000b4c0 	.word	0x0000b4c0
    8238:	0000b4cc 	.word	0x0000b4cc

0000823c <parallel_setup_write>:
    823c:	e92d4010 	push	{r4, lr}
    8240:	e3a04000 	mov	r4, #0
    8244:	ea000004 	b	825c <parallel_setup_write+0x20>
    8248:	e1a00004 	mov	r0, r4
    824c:	eb00080e 	bl	a28c <gpio_set_off>
    8250:	e1a00004 	mov	r0, r4
    8254:	eb0007e7 	bl	a1f8 <gpio_set_output>
    8258:	e2844001 	add	r4, r4, #1
    825c:	e3540007 	cmp	r4, #7
    8260:	9afffff8 	bls	8248 <parallel_setup_write+0xc>
    8264:	e3a00014 	mov	r0, #20
    8268:	eb000ad4 	bl	adc0 <gpio_set_pulldown>
    826c:	e3a00014 	mov	r0, #20
    8270:	eb000819 	bl	a2dc <gpio_set_input>
    8274:	e3a00015 	mov	r0, #21
    8278:	eb000803 	bl	a28c <gpio_set_off>
    827c:	e3a00015 	mov	r0, #21
    8280:	eb0007dc 	bl	a1f8 <gpio_set_output>
    8284:	e8bd8010 	pop	{r4, pc}

00008288 <parallel_write_byte>:
    8288:	e92d4070 	push	{r4, r5, r6, lr}
    828c:	e1a04000 	mov	r4, r0
    8290:	e3a00014 	mov	r0, #20
    8294:	eb000826 	bl	a334 <gpio_read>
    8298:	e59f3048 	ldr	r3, [pc, #72]	@ 82e8 <parallel_write_byte+0x60>
    829c:	e5d33001 	ldrb	r3, [r3, #1]
    82a0:	e1500003 	cmp	r0, r3
    82a4:	0afffff9 	beq	8290 <parallel_write_byte+0x8>
    82a8:	e1e05004 	mvn	r5, r4
    82ac:	e1a01004 	mov	r1, r4
    82b0:	e59f0034 	ldr	r0, [pc, #52]	@ 82ec <parallel_write_byte+0x64>
    82b4:	ebffff5a 	bl	8024 <PUT32>
    82b8:	e1a01005 	mov	r1, r5
    82bc:	e59f002c 	ldr	r0, [pc, #44]	@ 82f0 <parallel_write_byte+0x68>
    82c0:	ebffff57 	bl	8024 <PUT32>
    82c4:	e59f401c 	ldr	r4, [pc, #28]	@ 82e8 <parallel_write_byte+0x60>
    82c8:	e5d43001 	ldrb	r3, [r4, #1]
    82cc:	e2233001 	eor	r3, r3, #1
    82d0:	e5c43001 	strb	r3, [r4, #1]
    82d4:	eb000a2a 	bl	ab84 <dev_barrier>
    82d8:	e5d41001 	ldrb	r1, [r4, #1]
    82dc:	e3a00015 	mov	r0, #21
    82e0:	eb0007f6 	bl	a2c0 <gpio_write>
    82e4:	e8bd8070 	pop	{r4, r5, r6, pc}
    82e8:	0000d28c 	.word	0x0000d28c
    82ec:	2020001c 	.word	0x2020001c
    82f0:	20200028 	.word	0x20200028

000082f4 <parallel_write_32>:
    82f4:	e92d4010 	push	{r4, lr}
    82f8:	e1a04000 	mov	r4, r0
    82fc:	e6ef0070 	uxtb	r0, r0
    8300:	ebffffe0 	bl	8288 <parallel_write_byte>
    8304:	e1a00424 	lsr	r0, r4, #8
    8308:	e6ef0070 	uxtb	r0, r0
    830c:	ebffffdd 	bl	8288 <parallel_write_byte>
    8310:	e1a00824 	lsr	r0, r4, #16
    8314:	e6ef0070 	uxtb	r0, r0
    8318:	ebffffda 	bl	8288 <parallel_write_byte>
    831c:	e1a00c24 	lsr	r0, r4, #24
    8320:	ebffffd8 	bl	8288 <parallel_write_byte>
    8324:	e8bd8010 	pop	{r4, pc}

00008328 <parallel_write_n>:
    8328:	e92d4070 	push	{r4, r5, r6, lr}
    832c:	e24dd008 	sub	sp, sp, #8
    8330:	e1a06000 	mov	r6, r0
    8334:	e1a05001 	mov	r5, r1
    8338:	e2114003 	ands	r4, r1, #3
    833c:	0a00000a 	beq	836c <parallel_write_n+0x44>
    8340:	e59f3034 	ldr	r3, [pc, #52]	@ 837c <parallel_write_n+0x54>
    8344:	e58d3000 	str	r3, [sp]
    8348:	e3a03057 	mov	r3, #87	@ 0x57
    834c:	e59f202c 	ldr	r2, [pc, #44]	@ 8380 <parallel_write_n+0x58>
    8350:	e59f102c 	ldr	r1, [pc, #44]	@ 8384 <parallel_write_n+0x5c>
    8354:	e59f002c 	ldr	r0, [pc, #44]	@ 8388 <parallel_write_n+0x60>
    8358:	eb00084b 	bl	a48c <printk>
    835c:	eb00097a 	bl	a94c <clean_reboot>
    8360:	e7960104 	ldr	r0, [r6, r4, lsl #2]
    8364:	ebffffe2 	bl	82f4 <parallel_write_32>
    8368:	e2844001 	add	r4, r4, #1
    836c:	e1540125 	cmp	r4, r5, lsr #2
    8370:	3afffffa 	bcc	8360 <parallel_write_n+0x38>
    8374:	e28dd008 	add	sp, sp, #8
    8378:	e8bd8070 	pop	{r4, r5, r6, pc}
    837c:	0000b4fc 	.word	0x0000b4fc
    8380:	0000c4e4 	.word	0x0000c4e4
    8384:	0000b4c0 	.word	0x0000b4c0
    8388:	0000b4cc 	.word	0x0000b4cc

0000838c <mmu_is_enabled>:
    838c:	e92d4010 	push	{r4, lr}
    8390:	eb001161 	bl	c91c <cp15_ctrl_reg1_rd>
    8394:	e2000001 	and	r0, r0, #1
    8398:	e8bd8010 	pop	{r4, pc}

0000839c <mmu_disable_set>:
    839c:	e92d4030 	push	{r4, r5, lr}
    83a0:	e24dd00c 	sub	sp, sp, #12
    83a4:	e3100001 	tst	r0, #1
    83a8:	1a000007 	bne	83cc <mmu_disable_set+0x30>
    83ac:	e1a04000 	mov	r4, r0
    83b0:	e1a05120 	lsr	r5, r0, #2
    83b4:	e2055001 	and	r5, r5, #1
    83b8:	eb001240 	bl	ccc0 <staff_mmu_disable_set_asm>
    83bc:	e3550000 	cmp	r5, #0
    83c0:	1a000009 	bne	83ec <mmu_disable_set+0x50>
    83c4:	e28dd00c 	add	sp, sp, #12
    83c8:	e8bd8030 	pop	{r4, r5, pc}
    83cc:	e59f3024 	ldr	r3, [pc, #36]	@ 83f8 <mmu_disable_set+0x5c>
    83d0:	e58d3000 	str	r3, [sp]
    83d4:	e3a03016 	mov	r3, #22
    83d8:	e59f201c 	ldr	r2, [pc, #28]	@ 83fc <mmu_disable_set+0x60>
    83dc:	e59f101c 	ldr	r1, [pc, #28]	@ 8400 <mmu_disable_set+0x64>
    83e0:	e59f001c 	ldr	r0, [pc, #28]	@ 8404 <mmu_disable_set+0x68>
    83e4:	eb000828 	bl	a48c <printk>
    83e8:	eb000957 	bl	a94c <clean_reboot>
    83ec:	e3840004 	orr	r0, r4, #4
    83f0:	eb0011be 	bl	caf0 <cp15_ctrl_reg1_wr>
    83f4:	eafffff2 	b	83c4 <mmu_disable_set+0x28>
    83f8:	0000b518 	.word	0x0000b518
    83fc:	0000c4f8 	.word	0x0000c4f8
    8400:	0000b50c 	.word	0x0000b50c
    8404:	0000b4cc 	.word	0x0000b4cc

00008408 <mmu_disable>:
    8408:	e52de004 	push	{lr}		@ (str lr, [sp, #-4]!)
    840c:	e24dd00c 	sub	sp, sp, #12
    8410:	eb001141 	bl	c91c <cp15_ctrl_reg1_rd>
    8414:	e3100001 	tst	r0, #1
    8418:	0a000003 	beq	842c <mmu_disable+0x24>
    841c:	e3c00001 	bic	r0, r0, #1
    8420:	ebffffdd 	bl	839c <mmu_disable_set>
    8424:	e28dd00c 	add	sp, sp, #12
    8428:	e49df004 	pop	{pc}		@ (ldr pc, [sp], #4)
    842c:	e59f3018 	ldr	r3, [pc, #24]	@ 844c <mmu_disable+0x44>
    8430:	e58d3000 	str	r3, [sp]
    8434:	e3a0302a 	mov	r3, #42	@ 0x2a
    8438:	e59f2010 	ldr	r2, [pc, #16]	@ 8450 <mmu_disable+0x48>
    843c:	e59f1010 	ldr	r1, [pc, #16]	@ 8454 <mmu_disable+0x4c>
    8440:	e59f0010 	ldr	r0, [pc, #16]	@ 8458 <mmu_disable+0x50>
    8444:	eb000810 	bl	a48c <printk>
    8448:	eb00093f 	bl	a94c <clean_reboot>
    844c:	0000b528 	.word	0x0000b528
    8450:	0000c508 	.word	0x0000c508
    8454:	0000b50c 	.word	0x0000b50c
    8458:	0000b4cc 	.word	0x0000b4cc

0000845c <mmu_enable_set>:
    845c:	e52de004 	push	{lr}		@ (str lr, [sp, #-4]!)
    8460:	e24dd00c 	sub	sp, sp, #12
    8464:	e3100001 	tst	r0, #1
    8468:	0a000002 	beq	8478 <mmu_enable_set+0x1c>
    846c:	eb0011f9 	bl	cc58 <staff_mmu_enable_set_asm>
    8470:	e28dd00c 	add	sp, sp, #12
    8474:	e49df004 	pop	{pc}		@ (ldr pc, [sp], #4)
    8478:	e59f3018 	ldr	r3, [pc, #24]	@ 8498 <mmu_enable_set+0x3c>
    847c:	e58d3000 	str	r3, [sp]
    8480:	e3a03034 	mov	r3, #52	@ 0x34
    8484:	e59f2010 	ldr	r2, [pc, #16]	@ 849c <mmu_enable_set+0x40>
    8488:	e59f1010 	ldr	r1, [pc, #16]	@ 84a0 <mmu_enable_set+0x44>
    848c:	e59f0010 	ldr	r0, [pc, #16]	@ 84a4 <mmu_enable_set+0x48>
    8490:	eb0007fd 	bl	a48c <printk>
    8494:	eb00092c 	bl	a94c <clean_reboot>
    8498:	0000b528 	.word	0x0000b528
    849c:	0000c514 	.word	0x0000c514
    84a0:	0000b50c 	.word	0x0000b50c
    84a4:	0000b4cc 	.word	0x0000b4cc

000084a8 <mmu_enable>:
    84a8:	e52de004 	push	{lr}		@ (str lr, [sp, #-4]!)
    84ac:	e24dd00c 	sub	sp, sp, #12
    84b0:	eb001119 	bl	c91c <cp15_ctrl_reg1_rd>
    84b4:	e3100001 	tst	r0, #1
    84b8:	1a000003 	bne	84cc <mmu_enable+0x24>
    84bc:	e3800001 	orr	r0, r0, #1
    84c0:	ebffffe5 	bl	845c <mmu_enable_set>
    84c4:	e28dd00c 	add	sp, sp, #12
    84c8:	e49df004 	pop	{pc}		@ (ldr pc, [sp], #4)
    84cc:	e59f3018 	ldr	r3, [pc, #24]	@ 84ec <mmu_enable+0x44>
    84d0:	e58d3000 	str	r3, [sp]
    84d4:	e3a0303b 	mov	r3, #59	@ 0x3b
    84d8:	e59f2010 	ldr	r2, [pc, #16]	@ 84f0 <mmu_enable+0x48>
    84dc:	e59f1010 	ldr	r1, [pc, #16]	@ 84f4 <mmu_enable+0x4c>
    84e0:	e59f0010 	ldr	r0, [pc, #16]	@ 84f8 <mmu_enable+0x50>
    84e4:	eb0007e8 	bl	a48c <printk>
    84e8:	eb000917 	bl	a94c <clean_reboot>
    84ec:	0000b518 	.word	0x0000b518
    84f0:	0000c524 	.word	0x0000c524
    84f4:	0000b50c 	.word	0x0000b50c
    84f8:	0000b4cc 	.word	0x0000b4cc

000084fc <set_procid_ttbr0>:
    84fc:	e52de004 	push	{lr}		@ (str lr, [sp, #-4]!)
    8500:	e24dd00c 	sub	sp, sp, #12
    8504:	e1a03001 	mov	r3, r1
    8508:	e1a01002 	mov	r1, r2
    850c:	e1b02c20 	lsrs	r2, r0, #24
    8510:	1a000008 	bne	8538 <set_procid_ttbr0+0x3c>
    8514:	e3500040 	cmp	r0, #64	@ 0x40
    8518:	9a00000e 	bls	8558 <set_procid_ttbr0+0x5c>
    851c:	e2432001 	sub	r2, r3, #1
    8520:	e352003e 	cmp	r2, #62	@ 0x3e
    8524:	8a000013 	bhi	8578 <set_procid_ttbr0+0x7c>
    8528:	e1830400 	orr	r0, r3, r0, lsl #8
    852c:	eb0011a4 	bl	cbc4 <staff_cp15_set_procid_ttbr0>
    8530:	e28dd00c 	add	sp, sp, #12
    8534:	e49df004 	pop	{pc}		@ (ldr pc, [sp], #4)
    8538:	e59f3058 	ldr	r3, [pc, #88]	@ 8598 <set_procid_ttbr0+0x9c>
    853c:	e58d3000 	str	r3, [sp]
    8540:	e3a03042 	mov	r3, #66	@ 0x42
    8544:	e59f2050 	ldr	r2, [pc, #80]	@ 859c <set_procid_ttbr0+0xa0>
    8548:	e59f1050 	ldr	r1, [pc, #80]	@ 85a0 <set_procid_ttbr0+0xa4>
    854c:	e59f0050 	ldr	r0, [pc, #80]	@ 85a4 <set_procid_ttbr0+0xa8>
    8550:	eb0007cd 	bl	a48c <printk>
    8554:	eb0008fc 	bl	a94c <clean_reboot>
    8558:	e59f3048 	ldr	r3, [pc, #72]	@ 85a8 <set_procid_ttbr0+0xac>
    855c:	e58d3000 	str	r3, [sp]
    8560:	e3a03043 	mov	r3, #67	@ 0x43
    8564:	e59f2030 	ldr	r2, [pc, #48]	@ 859c <set_procid_ttbr0+0xa0>
    8568:	e59f1030 	ldr	r1, [pc, #48]	@ 85a0 <set_procid_ttbr0+0xa4>
    856c:	e59f0030 	ldr	r0, [pc, #48]	@ 85a4 <set_procid_ttbr0+0xa8>
    8570:	eb0007c5 	bl	a48c <printk>
    8574:	eb0008f4 	bl	a94c <clean_reboot>
    8578:	e59f302c 	ldr	r3, [pc, #44]	@ 85ac <set_procid_ttbr0+0xb0>
    857c:	e58d3000 	str	r3, [sp]
    8580:	e3a03044 	mov	r3, #68	@ 0x44
    8584:	e59f2010 	ldr	r2, [pc, #16]	@ 859c <set_procid_ttbr0+0xa0>
    8588:	e59f1010 	ldr	r1, [pc, #16]	@ 85a0 <set_procid_ttbr0+0xa4>
    858c:	e59f0010 	ldr	r0, [pc, #16]	@ 85a4 <set_procid_ttbr0+0xa8>
    8590:	eb0007bd 	bl	a48c <printk>
    8594:	eb0008ec 	bl	a94c <clean_reboot>
    8598:	0000b538 	.word	0x0000b538
    859c:	0000c530 	.word	0x0000c530
    85a0:	0000b50c 	.word	0x0000b50c
    85a4:	0000b4cc 	.word	0x0000b4cc
    85a8:	0000b54c 	.word	0x0000b54c
    85ac:	0000b558 	.word	0x0000b558

000085b0 <mmu_init>:
    85b0:	e92d4010 	push	{r4, lr}
    85b4:	eb000515 	bl	9a10 <staff_mmu_init>
    85b8:	e8bd8010 	pop	{r4, pc}

000085bc <domain_access_ctrl_get>:
    85bc:	e92d4010 	push	{r4, lr}
    85c0:	eb00055e 	bl	9b40 <staff_domain_access_ctrl_get>
    85c4:	e8bd8010 	pop	{r4, pc}

000085c8 <domain_access_ctrl_set>:
    85c8:	e92d4010 	push	{r4, lr}
    85cc:	e24dd008 	sub	sp, sp, #8
    85d0:	e1a04000 	mov	r4, r0
    85d4:	eb00055b 	bl	9b48 <staff_domain_access_ctrl_set>
    85d8:	ebfffff7 	bl	85bc <domain_access_ctrl_get>
    85dc:	e1500004 	cmp	r0, r4
    85e0:	1a000001 	bne	85ec <domain_access_ctrl_set+0x24>
    85e4:	e28dd008 	add	sp, sp, #8
    85e8:	e8bd8010 	pop	{r4, pc}
    85ec:	e59f3018 	ldr	r3, [pc, #24]	@ 860c <domain_access_ctrl_set+0x44>
    85f0:	e58d3000 	str	r3, [sp]
    85f4:	e3a03069 	mov	r3, #105	@ 0x69
    85f8:	e59f2010 	ldr	r2, [pc, #16]	@ 8610 <domain_access_ctrl_set+0x48>
    85fc:	e59f1010 	ldr	r1, [pc, #16]	@ 8614 <domain_access_ctrl_set+0x4c>
    8600:	e59f0010 	ldr	r0, [pc, #16]	@ 8618 <domain_access_ctrl_set+0x50>
    8604:	eb0007a0 	bl	a48c <printk>
    8608:	eb0008cf 	bl	a94c <clean_reboot>
    860c:	0000b56c 	.word	0x0000b56c
    8610:	0000c544 	.word	0x0000c544
    8614:	0000b50c 	.word	0x0000b50c
    8618:	0000b4cc 	.word	0x0000b4cc

0000861c <dom_perm>:
    861c:	e52de004 	push	{lr}		@ (str lr, [sp, #-4]!)
    8620:	e24dd00c 	sub	sp, sp, #12
    8624:	e250c000 	subs	ip, r0, #0
    8628:	0a000005 	beq	8644 <dom_perm+0x28>
    862c:	e1b0082c 	lsrs	r0, ip, #16
    8630:	1a00000b 	bne	8664 <dom_perm+0x48>
    8634:	e3510003 	cmp	r1, #3
    8638:	8a000011 	bhi	8684 <dom_perm+0x68>
    863c:	e1a03000 	mov	r3, r0
    8640:	ea000018 	b	86a8 <dom_perm+0x8c>
    8644:	e59f3080 	ldr	r3, [pc, #128]	@ 86cc <dom_perm+0xb0>
    8648:	e58d3000 	str	r3, [sp]
    864c:	e3a03030 	mov	r3, #48	@ 0x30
    8650:	e59f2078 	ldr	r2, [pc, #120]	@ 86d0 <dom_perm+0xb4>
    8654:	e59f1078 	ldr	r1, [pc, #120]	@ 86d4 <dom_perm+0xb8>
    8658:	e59f0078 	ldr	r0, [pc, #120]	@ 86d8 <dom_perm+0xbc>
    865c:	eb00078a 	bl	a48c <printk>
    8660:	eb0008b9 	bl	a94c <clean_reboot>
    8664:	e59f3070 	ldr	r3, [pc, #112]	@ 86dc <dom_perm+0xc0>
    8668:	e58d3000 	str	r3, [sp]
    866c:	e3a03031 	mov	r3, #49	@ 0x31
    8670:	e59f2058 	ldr	r2, [pc, #88]	@ 86d0 <dom_perm+0xb4>
    8674:	e59f1058 	ldr	r1, [pc, #88]	@ 86d4 <dom_perm+0xb8>
    8678:	e59f0058 	ldr	r0, [pc, #88]	@ 86d8 <dom_perm+0xbc>
    867c:	eb000782 	bl	a48c <printk>
    8680:	eb0008b1 	bl	a94c <clean_reboot>
    8684:	e59f3054 	ldr	r3, [pc, #84]	@ 86e0 <dom_perm+0xc4>
    8688:	e58d3000 	str	r3, [sp]
    868c:	e3a03032 	mov	r3, #50	@ 0x32
    8690:	e59f2038 	ldr	r2, [pc, #56]	@ 86d0 <dom_perm+0xb4>
    8694:	e59f1038 	ldr	r1, [pc, #56]	@ 86d4 <dom_perm+0xb8>
    8698:	e59f0038 	ldr	r0, [pc, #56]	@ 86d8 <dom_perm+0xbc>
    869c:	eb00077a 	bl	a48c <printk>
    86a0:	eb0008a9 	bl	a94c <clean_reboot>
    86a4:	e2833001 	add	r3, r3, #1
    86a8:	e353000f 	cmp	r3, #15
    86ac:	8a000004 	bhi	86c4 <dom_perm+0xa8>
    86b0:	e3a02001 	mov	r2, #1
    86b4:	e01c2312 	ands	r2, ip, r2, lsl r3
    86b8:	11a02083 	lslne	r2, r3, #1
    86bc:	11800211 	orrne	r0, r0, r1, lsl r2
    86c0:	eafffff7 	b	86a4 <dom_perm+0x88>
    86c4:	e28dd00c 	add	sp, sp, #12
    86c8:	e49df004 	pop	{pc}		@ (ldr pc, [sp], #4)
    86cc:	0000b598 	.word	0x0000b598
    86d0:	0000c55c 	.word	0x0000c55c
    86d4:	0000b58c 	.word	0x0000b58c
    86d8:	0000b4cc 	.word	0x0000b4cc
    86dc:	0000b5a0 	.word	0x0000b5a0
    86e0:	0000b5b0 	.word	0x0000b5b0

000086e4 <mem_perm_islegal>:
    86e4:	e3500003 	cmp	r0, #3
    86e8:	9a000001 	bls	86f4 <mem_perm_islegal+0x10>
    86ec:	e3500005 	cmp	r0, #5
    86f0:	1a000001 	bne	86fc <mem_perm_islegal+0x18>
    86f4:	e3a00001 	mov	r0, #1
    86f8:	e12fff1e 	bx	lr
    86fc:	e52de004 	push	{lr}		@ (str lr, [sp, #-4]!)
    8700:	e24dd00c 	sub	sp, sp, #12
    8704:	e58d0000 	str	r0, [sp]
    8708:	e3a0303f 	mov	r3, #63	@ 0x3f
    870c:	e59f200c 	ldr	r2, [pc, #12]	@ 8720 <mem_perm_islegal+0x3c>
    8710:	e59f100c 	ldr	r1, [pc, #12]	@ 8724 <mem_perm_islegal+0x40>
    8714:	e59f000c 	ldr	r0, [pc, #12]	@ 8728 <mem_perm_islegal+0x44>
    8718:	eb00075b 	bl	a48c <printk>
    871c:	eb00088a 	bl	a94c <clean_reboot>
    8720:	0000c568 	.word	0x0000c568
    8724:	0000b5c0 	.word	0x0000b5c0
    8728:	0000b5cc 	.word	0x0000b5cc

0000872c <pin_mk>:
    872c:	e92d41f0 	push	{r4, r5, r6, r7, r8, lr}
    8730:	e24dd008 	sub	sp, sp, #8
    8734:	e1a04000 	mov	r4, r0
    8738:	e1a07001 	mov	r7, r1
    873c:	e1a06002 	mov	r6, r2
    8740:	e1a05003 	mov	r5, r3
    8744:	e5dd8020 	ldrb	r8, [sp, #32]
    8748:	e1a00008 	mov	r0, r8
    874c:	ebffffe4 	bl	86e4 <mem_perm_islegal>
    8750:	e3500000 	cmp	r0, #0
    8754:	0a000010 	beq	879c <pin_mk+0x70>
    8758:	e3560010 	cmp	r6, #16
    875c:	8a000017 	bhi	87c0 <pin_mk+0x94>
    8760:	e3570000 	cmp	r7, #0
    8764:	0a000026 	beq	8804 <pin_mk+0xd8>
    8768:	e3550000 	cmp	r5, #0
    876c:	1a00001b 	bne	87e0 <pin_mk+0xb4>
    8770:	e5847000 	str	r7, [r4]
    8774:	e5845004 	str	r5, [r4, #4]
    8778:	e5846008 	str	r6, [r4, #8]
    877c:	e3a03003 	mov	r3, #3
    8780:	e584300c 	str	r3, [r4, #12]
    8784:	e5c48010 	strb	r8, [r4, #16]
    8788:	e5dd3024 	ldrb	r3, [sp, #36]	@ 0x24
    878c:	e5c43011 	strb	r3, [r4, #17]
    8790:	e1a00004 	mov	r0, r4
    8794:	e28dd008 	add	sp, sp, #8
    8798:	e8bd81f0 	pop	{r4, r5, r6, r7, r8, pc}
    879c:	e58d8004 	str	r8, [sp, #4]
    87a0:	e59f30b0 	ldr	r3, [pc, #176]	@ 8858 <pin_mk+0x12c>
    87a4:	e58d3000 	str	r3, [sp]
    87a8:	e3a0308b 	mov	r3, #139	@ 0x8b
    87ac:	e59f20a8 	ldr	r2, [pc, #168]	@ 885c <pin_mk+0x130>
    87b0:	e59f10a8 	ldr	r1, [pc, #168]	@ 8860 <pin_mk+0x134>
    87b4:	e59f00a8 	ldr	r0, [pc, #168]	@ 8864 <pin_mk+0x138>
    87b8:	eb000733 	bl	a48c <printk>
    87bc:	eb000862 	bl	a94c <clean_reboot>
    87c0:	e59f30a0 	ldr	r3, [pc, #160]	@ 8868 <pin_mk+0x13c>
    87c4:	e58d3000 	str	r3, [sp]
    87c8:	e3a0308c 	mov	r3, #140	@ 0x8c
    87cc:	e59f2088 	ldr	r2, [pc, #136]	@ 885c <pin_mk+0x130>
    87d0:	e59f1088 	ldr	r1, [pc, #136]	@ 8860 <pin_mk+0x134>
    87d4:	e59f0090 	ldr	r0, [pc, #144]	@ 886c <pin_mk+0x140>
    87d8:	eb00072b 	bl	a48c <printk>
    87dc:	eb00085a 	bl	a94c <clean_reboot>
    87e0:	e58d5004 	str	r5, [sp, #4]
    87e4:	e59f3084 	ldr	r3, [pc, #132]	@ 8870 <pin_mk+0x144>
    87e8:	e58d3000 	str	r3, [sp]
    87ec:	e3a0308e 	mov	r3, #142	@ 0x8e
    87f0:	e59f2064 	ldr	r2, [pc, #100]	@ 885c <pin_mk+0x130>
    87f4:	e59f1064 	ldr	r1, [pc, #100]	@ 8860 <pin_mk+0x134>
    87f8:	e59f0074 	ldr	r0, [pc, #116]	@ 8874 <pin_mk+0x148>
    87fc:	eb000722 	bl	a48c <printk>
    8800:	eb000851 	bl	a94c <clean_reboot>
    8804:	e3550000 	cmp	r5, #0
    8808:	0a00000a 	beq	8838 <pin_mk+0x10c>
    880c:	e2453001 	sub	r3, r5, #1
    8810:	e353003e 	cmp	r3, #62	@ 0x3e
    8814:	9affffd5 	bls	8770 <pin_mk+0x44>
    8818:	e59f3058 	ldr	r3, [pc, #88]	@ 8878 <pin_mk+0x14c>
    881c:	e58d3000 	str	r3, [sp]
    8820:	e3a03091 	mov	r3, #145	@ 0x91
    8824:	e59f2030 	ldr	r2, [pc, #48]	@ 885c <pin_mk+0x130>
    8828:	e59f1030 	ldr	r1, [pc, #48]	@ 8860 <pin_mk+0x134>
    882c:	e59f0048 	ldr	r0, [pc, #72]	@ 887c <pin_mk+0x150>
    8830:	eb000715 	bl	a48c <printk>
    8834:	eb000844 	bl	a94c <clean_reboot>
    8838:	e59f3040 	ldr	r3, [pc, #64]	@ 8880 <pin_mk+0x154>
    883c:	e58d3000 	str	r3, [sp]
    8840:	e3a03090 	mov	r3, #144	@ 0x90
    8844:	e59f2010 	ldr	r2, [pc, #16]	@ 885c <pin_mk+0x130>
    8848:	e59f1010 	ldr	r1, [pc, #16]	@ 8860 <pin_mk+0x134>
    884c:	e59f0030 	ldr	r0, [pc, #48]	@ 8884 <pin_mk+0x158>
    8850:	eb00070d 	bl	a48c <printk>
    8854:	eb00083c 	bl	a94c <clean_reboot>
    8858:	0000b63c 	.word	0x0000b63c
    885c:	0000c57c 	.word	0x0000c57c
    8860:	0000b5c0 	.word	0x0000b5c0
    8864:	0000b5f4 	.word	0x0000b5f4
    8868:	0000b690 	.word	0x0000b690
    886c:	0000b654 	.word	0x0000b654
    8870:	0000b6ec 	.word	0x0000b6ec
    8874:	0000b69c 	.word	0x0000b69c
    8878:	0000b778 	.word	0x0000b778
    887c:	0000b740 	.word	0x0000b740
    8880:	0000b738 	.word	0x0000b738
    8884:	0000b6f4 	.word	0x0000b6f4

00008888 <pin_mk_device>:
    8888:	e92d4010 	push	{r4, lr}
    888c:	e24dd008 	sub	sp, sp, #8
    8890:	e1a04000 	mov	r4, r0
    8894:	e1a02001 	mov	r2, r1
    8898:	e3a03000 	mov	r3, #0
    889c:	e58d3004 	str	r3, [sp, #4]
    88a0:	e3a01001 	mov	r1, #1
    88a4:	e58d1000 	str	r1, [sp]
    88a8:	ebffff9f 	bl	872c <pin_mk>
    88ac:	e1a00004 	mov	r0, r4
    88b0:	e28dd008 	add	sp, sp, #8
    88b4:	e8bd8010 	pop	{r4, pc}

000088b8 <attr_mk>:
    88b8:	e92d4010 	push	{r4, lr}
    88bc:	e24dd008 	sub	sp, sp, #8
    88c0:	e1a04000 	mov	r4, r0
    88c4:	e1a02001 	mov	r2, r1
    88c8:	e5d13008 	ldrb	r3, [r1, #8]
    88cc:	e3530001 	cmp	r3, #1
    88d0:	0a000008 	beq	88f8 <attr_mk+0x40>
    88d4:	e3530002 	cmp	r3, #2
    88d8:	0a00000e 	beq	8918 <attr_mk+0x60>
    88dc:	e3530000 	cmp	r3, #0
    88e0:	1a000012 	bne	8930 <attr_mk+0x78>
    88e4:	e591100c 	ldr	r1, [r1, #12]
    88e8:	ebffffe6 	bl	8888 <pin_mk_device>
    88ec:	e1a00004 	mov	r0, r4
    88f0:	e28dd008 	add	sp, sp, #8
    88f4:	e8bd8010 	pop	{r4, pc}
    88f8:	e3a03004 	mov	r3, #4
    88fc:	e58d3004 	str	r3, [sp, #4]
    8900:	e3a01001 	mov	r1, #1
    8904:	e58d1000 	str	r1, [sp]
    8908:	e3a03000 	mov	r3, #0
    890c:	e592200c 	ldr	r2, [r2, #12]
    8910:	ebffff85 	bl	872c <pin_mk>
    8914:	eafffff4 	b	88ec <attr_mk+0x34>
    8918:	e3a03086 	mov	r3, #134	@ 0x86
    891c:	e59f2028 	ldr	r2, [pc, #40]	@ 894c <attr_mk+0x94>
    8920:	e59f1028 	ldr	r1, [pc, #40]	@ 8950 <attr_mk+0x98>
    8924:	e59f0028 	ldr	r0, [pc, #40]	@ 8954 <attr_mk+0x9c>
    8928:	eb0006d7 	bl	a48c <printk>
    892c:	eb000806 	bl	a94c <clean_reboot>
    8930:	e58d3000 	str	r3, [sp]
    8934:	e3a03088 	mov	r3, #136	@ 0x88
    8938:	e59f200c 	ldr	r2, [pc, #12]	@ 894c <attr_mk+0x94>
    893c:	e59f100c 	ldr	r1, [pc, #12]	@ 8950 <attr_mk+0x98>
    8940:	e59f0010 	ldr	r0, [pc, #16]	@ 8958 <attr_mk+0xa0>
    8944:	eb0006d0 	bl	a48c <printk>
    8948:	eb0007ff 	bl	a94c <clean_reboot>
    894c:	0000c584 	.word	0x0000c584
    8950:	0000b790 	.word	0x0000b790
    8954:	0000b798 	.word	0x0000b798
    8958:	0000b7b8 	.word	0x0000b7b8

0000895c <mmu_set_ctx>:
    895c:	e52de004 	push	{lr}		@ (str lr, [sp, #-4]!)
    8960:	e24dd00c 	sub	sp, sp, #12
    8964:	e3510000 	cmp	r1, #0
    8968:	0a000006 	beq	8988 <mmu_set_ctx+0x2c>
    896c:	e351003f 	cmp	r1, #63	@ 0x3f
    8970:	8a00000c 	bhi	89a8 <mmu_set_ctx+0x4c>
    8974:	e3500040 	cmp	r0, #64	@ 0x40
    8978:	9a000012 	bls	89c8 <mmu_set_ctx+0x6c>
    897c:	ebfffede 	bl	84fc <set_procid_ttbr0>
    8980:	e28dd00c 	add	sp, sp, #12
    8984:	e49df004 	pop	{pc}		@ (ldr pc, [sp], #4)
    8988:	e59f3058 	ldr	r3, [pc, #88]	@ 89e8 <mmu_set_ctx+0x8c>
    898c:	e58d3000 	str	r3, [sp]
    8990:	e3a030b4 	mov	r3, #180	@ 0xb4
    8994:	e59f2050 	ldr	r2, [pc, #80]	@ 89ec <mmu_set_ctx+0x90>
    8998:	e59f1050 	ldr	r1, [pc, #80]	@ 89f0 <mmu_set_ctx+0x94>
    899c:	e59f0050 	ldr	r0, [pc, #80]	@ 89f4 <mmu_set_ctx+0x98>
    89a0:	eb0006b9 	bl	a48c <printk>
    89a4:	eb0007e8 	bl	a94c <clean_reboot>
    89a8:	e59f3048 	ldr	r3, [pc, #72]	@ 89f8 <mmu_set_ctx+0x9c>
    89ac:	e58d3000 	str	r3, [sp]
    89b0:	e3a030b5 	mov	r3, #181	@ 0xb5
    89b4:	e59f2030 	ldr	r2, [pc, #48]	@ 89ec <mmu_set_ctx+0x90>
    89b8:	e59f1030 	ldr	r1, [pc, #48]	@ 89f0 <mmu_set_ctx+0x94>
    89bc:	e59f0030 	ldr	r0, [pc, #48]	@ 89f4 <mmu_set_ctx+0x98>
    89c0:	eb0006b1 	bl	a48c <printk>
    89c4:	eb0007e0 	bl	a94c <clean_reboot>
    89c8:	e59f302c 	ldr	r3, [pc, #44]	@ 89fc <mmu_set_ctx+0xa0>
    89cc:	e58d3000 	str	r3, [sp]
    89d0:	e3a030b6 	mov	r3, #182	@ 0xb6
    89d4:	e59f2010 	ldr	r2, [pc, #16]	@ 89ec <mmu_set_ctx+0x90>
    89d8:	e59f1010 	ldr	r1, [pc, #16]	@ 89f0 <mmu_set_ctx+0x94>
    89dc:	e59f0010 	ldr	r0, [pc, #16]	@ 89f4 <mmu_set_ctx+0x98>
    89e0:	eb0006a9 	bl	a48c <printk>
    89e4:	eb0007d8 	bl	a94c <clean_reboot>
    89e8:	0000b7e8 	.word	0x0000b7e8
    89ec:	0000c58c 	.word	0x0000c58c
    89f0:	0000b7dc 	.word	0x0000b7dc
    89f4:	0000b4cc 	.word	0x0000b4cc
    89f8:	0000b7f0 	.word	0x0000b7f0
    89fc:	0000b7f8 	.word	0x0000b7f8

00008a00 <vm_pt_alloc>:
    8a00:	e52de004 	push	{lr}		@ (str lr, [sp, #-4]!)
    8a04:	e24dd00c 	sub	sp, sp, #12
    8a08:	e3500a01 	cmp	r0, #4096	@ 0x1000
    8a0c:	1a000008 	bne	8a34 <vm_pt_alloc+0x34>
    8a10:	e3a01901 	mov	r1, #16384	@ 0x4000
    8a14:	e1a00001 	mov	r0, r1
    8a18:	eb00098f 	bl	b05c <kmalloc_aligned>
    8a1c:	e1a03900 	lsl	r3, r0, #18
    8a20:	e1a03923 	lsr	r3, r3, #18
    8a24:	e3530000 	cmp	r3, #0
    8a28:	1a000009 	bne	8a54 <vm_pt_alloc+0x54>
    8a2c:	e28dd00c 	add	sp, sp, #12
    8a30:	e49df004 	pop	{pc}		@ (ldr pc, [sp], #4)
    8a34:	e59f3038 	ldr	r3, [pc, #56]	@ 8a74 <vm_pt_alloc+0x74>
    8a38:	e58d3000 	str	r3, [sp]
    8a3c:	e3a0300b 	mov	r3, #11
    8a40:	e59f2030 	ldr	r2, [pc, #48]	@ 8a78 <vm_pt_alloc+0x78>
    8a44:	e59f1030 	ldr	r1, [pc, #48]	@ 8a7c <vm_pt_alloc+0x7c>
    8a48:	e59f0030 	ldr	r0, [pc, #48]	@ 8a80 <vm_pt_alloc+0x80>
    8a4c:	eb00068e 	bl	a48c <printk>
    8a50:	eb0007bd 	bl	a94c <clean_reboot>
    8a54:	e59f3028 	ldr	r3, [pc, #40]	@ 8a84 <vm_pt_alloc+0x84>
    8a58:	e58d3000 	str	r3, [sp]
    8a5c:	e3a03014 	mov	r3, #20
    8a60:	e59f2010 	ldr	r2, [pc, #16]	@ 8a78 <vm_pt_alloc+0x78>
    8a64:	e59f1010 	ldr	r1, [pc, #16]	@ 8a7c <vm_pt_alloc+0x7c>
    8a68:	e59f0018 	ldr	r0, [pc, #24]	@ 8a88 <vm_pt_alloc+0x88>
    8a6c:	eb000686 	bl	a48c <printk>
    8a70:	eb0007b5 	bl	a94c <clean_reboot>
    8a74:	0000b864 	.word	0x0000b864
    8a78:	0000c598 	.word	0x0000c598
    8a7c:	0000b790 	.word	0x0000b790
    8a80:	0000b800 	.word	0x0000b800
    8a84:	0000b8b4 	.word	0x0000b8b4
    8a88:	0000b870 	.word	0x0000b870

00008a8c <vm_dup>:
    8a8c:	e92d4070 	push	{r4, r5, r6, lr}
    8a90:	e1a05000 	mov	r5, r0
    8a94:	e3a00a01 	mov	r0, #4096	@ 0x1000
    8a98:	ebffffd8 	bl	8a00 <vm_pt_alloc>
    8a9c:	e1a04000 	mov	r4, r0
    8aa0:	e3a02901 	mov	r2, #16384	@ 0x4000
    8aa4:	e1a01005 	mov	r1, r5
    8aa8:	eb00064c 	bl	a3e0 <memcpy>
    8aac:	e1a00004 	mov	r0, r4
    8ab0:	e8bd8070 	pop	{r4, r5, r6, pc}

00008ab4 <vm_mmu_enable>:
    8ab4:	e52de004 	push	{lr}		@ (str lr, [sp, #-4]!)
    8ab8:	e24dd00c 	sub	sp, sp, #12
    8abc:	ebfffe32 	bl	838c <mmu_is_enabled>
    8ac0:	e3500000 	cmp	r0, #0
    8ac4:	1a000005 	bne	8ae0 <vm_mmu_enable+0x2c>
    8ac8:	ebfffe76 	bl	84a8 <mmu_enable>
    8acc:	ebfffe2e 	bl	838c <mmu_is_enabled>
    8ad0:	e3500000 	cmp	r0, #0
    8ad4:	0a000009 	beq	8b00 <vm_mmu_enable+0x4c>
    8ad8:	e28dd00c 	add	sp, sp, #12
    8adc:	e49df004 	pop	{pc}		@ (ldr pc, [sp], #4)
    8ae0:	e59f3038 	ldr	r3, [pc, #56]	@ 8b20 <vm_mmu_enable+0x6c>
    8ae4:	e58d3000 	str	r3, [sp]
    8ae8:	e3a03022 	mov	r3, #34	@ 0x22
    8aec:	e59f2030 	ldr	r2, [pc, #48]	@ 8b24 <vm_mmu_enable+0x70>
    8af0:	e59f1030 	ldr	r1, [pc, #48]	@ 8b28 <vm_mmu_enable+0x74>
    8af4:	e59f0030 	ldr	r0, [pc, #48]	@ 8b2c <vm_mmu_enable+0x78>
    8af8:	eb000663 	bl	a48c <printk>
    8afc:	eb000792 	bl	a94c <clean_reboot>
    8b00:	e59f3028 	ldr	r3, [pc, #40]	@ 8b30 <vm_mmu_enable+0x7c>
    8b04:	e58d3000 	str	r3, [sp]
    8b08:	e3a03024 	mov	r3, #36	@ 0x24
    8b0c:	e59f2010 	ldr	r2, [pc, #16]	@ 8b24 <vm_mmu_enable+0x70>
    8b10:	e59f1010 	ldr	r1, [pc, #16]	@ 8b28 <vm_mmu_enable+0x74>
    8b14:	e59f0010 	ldr	r0, [pc, #16]	@ 8b2c <vm_mmu_enable+0x78>
    8b18:	eb00065b 	bl	a48c <printk>
    8b1c:	eb00078a 	bl	a94c <clean_reboot>
    8b20:	0000b8e0 	.word	0x0000b8e0
    8b24:	0000c5a4 	.word	0x0000c5a4
    8b28:	0000b790 	.word	0x0000b790
    8b2c:	0000b4cc 	.word	0x0000b4cc
    8b30:	0000b8f4 	.word	0x0000b8f4

00008b34 <vm_mmu_disable>:
    8b34:	e52de004 	push	{lr}		@ (str lr, [sp, #-4]!)
    8b38:	e24dd00c 	sub	sp, sp, #12
    8b3c:	ebfffe12 	bl	838c <mmu_is_enabled>
    8b40:	e3500000 	cmp	r0, #0
    8b44:	0a000005 	beq	8b60 <vm_mmu_disable+0x2c>
    8b48:	ebfffe2e 	bl	8408 <mmu_disable>
    8b4c:	ebfffe0e 	bl	838c <mmu_is_enabled>
    8b50:	e3500000 	cmp	r0, #0
    8b54:	1a000009 	bne	8b80 <vm_mmu_disable+0x4c>
    8b58:	e28dd00c 	add	sp, sp, #12
    8b5c:	e49df004 	pop	{pc}		@ (ldr pc, [sp], #4)
    8b60:	e59f3038 	ldr	r3, [pc, #56]	@ 8ba0 <vm_mmu_disable+0x6c>
    8b64:	e58d3000 	str	r3, [sp]
    8b68:	e3a03029 	mov	r3, #41	@ 0x29
    8b6c:	e59f2030 	ldr	r2, [pc, #48]	@ 8ba4 <vm_mmu_disable+0x70>
    8b70:	e59f1030 	ldr	r1, [pc, #48]	@ 8ba8 <vm_mmu_disable+0x74>
    8b74:	e59f0030 	ldr	r0, [pc, #48]	@ 8bac <vm_mmu_disable+0x78>
    8b78:	eb000643 	bl	a48c <printk>
    8b7c:	eb000772 	bl	a94c <clean_reboot>
    8b80:	e59f3028 	ldr	r3, [pc, #40]	@ 8bb0 <vm_mmu_disable+0x7c>
    8b84:	e58d3000 	str	r3, [sp]
    8b88:	e3a0302b 	mov	r3, #43	@ 0x2b
    8b8c:	e59f2010 	ldr	r2, [pc, #16]	@ 8ba4 <vm_mmu_disable+0x70>
    8b90:	e59f1010 	ldr	r1, [pc, #16]	@ 8ba8 <vm_mmu_disable+0x74>
    8b94:	e59f0010 	ldr	r0, [pc, #16]	@ 8bac <vm_mmu_disable+0x78>
    8b98:	eb00063b 	bl	a48c <printk>
    8b9c:	eb00076a 	bl	a94c <clean_reboot>
    8ba0:	0000b8f4 	.word	0x0000b8f4
    8ba4:	0000c5b4 	.word	0x0000c5b4
    8ba8:	0000b790 	.word	0x0000b790
    8bac:	0000b4cc 	.word	0x0000b4cc
    8bb0:	0000b8e0 	.word	0x0000b8e0

00008bb4 <vm_mmu_switch>:
    8bb4:	e52de004 	push	{lr}		@ (str lr, [sp, #-4]!)
    8bb8:	e24dd00c 	sub	sp, sp, #12
    8bbc:	e1a03000 	mov	r3, r0
    8bc0:	e1a00001 	mov	r0, r1
    8bc4:	e1a01002 	mov	r1, r2
    8bc8:	e2532000 	subs	r2, r3, #0
    8bcc:	0a000002 	beq	8bdc <vm_mmu_switch+0x28>
    8bd0:	ebffff61 	bl	895c <mmu_set_ctx>
    8bd4:	e28dd00c 	add	sp, sp, #12
    8bd8:	e49df004 	pop	{pc}		@ (ldr pc, [sp], #4)
    8bdc:	e59f3018 	ldr	r3, [pc, #24]	@ 8bfc <vm_mmu_switch+0x48>
    8be0:	e58d3000 	str	r3, [sp]
    8be4:	e3a03032 	mov	r3, #50	@ 0x32
    8be8:	e59f2010 	ldr	r2, [pc, #16]	@ 8c00 <vm_mmu_switch+0x4c>
    8bec:	e59f1010 	ldr	r1, [pc, #16]	@ 8c04 <vm_mmu_switch+0x50>
    8bf0:	e59f0010 	ldr	r0, [pc, #16]	@ 8c08 <vm_mmu_switch+0x54>
    8bf4:	eb000624 	bl	a48c <printk>
    8bf8:	eb000753 	bl	a94c <clean_reboot>
    8bfc:	0000b908 	.word	0x0000b908
    8c00:	0000c5c4 	.word	0x0000c5c4
    8c04:	0000b790 	.word	0x0000b790
    8c08:	0000b4cc 	.word	0x0000b4cc

00008c0c <vm_mmu_init>:
    8c0c:	e92d4010 	push	{r4, lr}
    8c10:	e1a04000 	mov	r4, r0
    8c14:	ebfffe65 	bl	85b0 <mmu_init>
    8c18:	e1a00004 	mov	r0, r4
    8c1c:	ebfffe69 	bl	85c8 <domain_access_ctrl_set>
    8c20:	e8bd8010 	pop	{r4, pc}

00008c24 <vm_map_sec>:
    8c24:	e24dd008 	sub	sp, sp, #8
    8c28:	e92d41f0 	push	{r4, r5, r6, r7, r8, lr}
    8c2c:	e24dd008 	sub	sp, sp, #8
    8c30:	e58d3024 	str	r3, [sp, #36]	@ 0x24
    8c34:	e3c134ff 	bic	r3, r1, #-16777216	@ 0xff000000
    8c38:	e3c3360f 	bic	r3, r3, #15728640	@ 0xf00000
    8c3c:	e3530000 	cmp	r3, #0
    8c40:	1a000054 	bne	8d98 <vm_map_sec+0x174>
    8c44:	e1a0c000 	mov	ip, r0
    8c48:	e3c234ff 	bic	r3, r2, #-16777216	@ 0xff000000
    8c4c:	e3c3360f 	bic	r3, r3, #15728640	@ 0xf00000
    8c50:	e3530000 	cmp	r3, #0
    8c54:	1a000057 	bne	8db8 <vm_map_sec+0x194>
    8c58:	e59d3030 	ldr	r3, [sp, #48]	@ 0x30
    8c5c:	e3530003 	cmp	r3, #3
    8c60:	1a00005c 	bne	8dd8 <vm_map_sec+0x1b4>
    8c64:	e1a01a21 	lsr	r1, r1, #20
    8c68:	e1a06101 	lsl	r6, r1, #2
    8c6c:	e0800101 	add	r0, r0, r1, lsl #2
    8c70:	e5dd7035 	ldrb	r7, [sp, #53]	@ 0x35
    8c74:	e1a080a7 	lsr	r8, r7, #1
    8c78:	e5dd5034 	ldrb	r5, [sp, #52]	@ 0x34
    8c7c:	e1a04127 	lsr	r4, r7, #2
    8c80:	e1a0e125 	lsr	lr, r5, #2
    8c84:	e7dc3101 	ldrb	r3, [ip, r1, lsl #2]
    8c88:	e3c33001 	bic	r3, r3, #1
    8c8c:	e3833002 	orr	r3, r3, #2
    8c90:	e7cc3101 	strb	r3, [ip, r1, lsl #2]
    8c94:	e6ef3073 	uxtb	r3, r3
    8c98:	e2077001 	and	r7, r7, #1
    8c9c:	e3c33004 	bic	r3, r3, #4
    8ca0:	e1833107 	orr	r3, r3, r7, lsl #2
    8ca4:	e7cc3101 	strb	r3, [ip, r1, lsl #2]
    8ca8:	e6ef3073 	uxtb	r3, r3
    8cac:	e2088001 	and	r8, r8, #1
    8cb0:	e3c33008 	bic	r3, r3, #8
    8cb4:	e1833188 	orr	r3, r3, r8, lsl #3
    8cb8:	e7cc3101 	strb	r3, [ip, r1, lsl #2]
    8cbc:	e6ef3073 	uxtb	r3, r3
    8cc0:	e3c33010 	bic	r3, r3, #16
    8cc4:	e7cc3101 	strb	r3, [ip, r1, lsl #2]
    8cc8:	e19c30b6 	ldrh	r3, [ip, r6]
    8ccc:	e59d102c 	ldr	r1, [sp, #44]	@ 0x2c
    8cd0:	e201100f 	and	r1, r1, #15
    8cd4:	e3c33e1e 	bic	r3, r3, #480	@ 0x1e0
    8cd8:	e1833281 	orr	r3, r3, r1, lsl #5
    8cdc:	e18c30b6 	strh	r3, [ip, r6]
    8ce0:	e5d03001 	ldrb	r3, [r0, #1]
    8ce4:	e3c33002 	bic	r3, r3, #2
    8ce8:	e5c03001 	strb	r3, [r0, #1]
    8cec:	e6ef3073 	uxtb	r3, r3
    8cf0:	e2055003 	and	r5, r5, #3
    8cf4:	e3c3300c 	bic	r3, r3, #12
    8cf8:	e1833105 	orr	r3, r3, r5, lsl #2
    8cfc:	e5c03001 	strb	r3, [r0, #1]
    8d00:	e6ef3073 	uxtb	r3, r3
    8d04:	e2044007 	and	r4, r4, #7
    8d08:	e3c33070 	bic	r3, r3, #112	@ 0x70
    8d0c:	e1833204 	orr	r3, r3, r4, lsl #4
    8d10:	e5c03001 	strb	r3, [r0, #1]
    8d14:	e6ef3073 	uxtb	r3, r3
    8d18:	e20ee001 	and	lr, lr, #1
    8d1c:	e3c33080 	bic	r3, r3, #128	@ 0x80
    8d20:	e183338e 	orr	r3, r3, lr, lsl #7
    8d24:	e5c03001 	strb	r3, [r0, #1]
    8d28:	e5d03002 	ldrb	r3, [r0, #2]
    8d2c:	e3c33001 	bic	r3, r3, #1
    8d30:	e5c03002 	strb	r3, [r0, #2]
    8d34:	e6ef3073 	uxtb	r3, r3
    8d38:	e59d1024 	ldr	r1, [sp, #36]	@ 0x24
    8d3c:	e16f1f11 	clz	r1, r1
    8d40:	e1a012a1 	lsr	r1, r1, #5
    8d44:	e3c33002 	bic	r3, r3, #2
    8d48:	e1833081 	orr	r3, r3, r1, lsl #1
    8d4c:	e5c03002 	strb	r3, [r0, #2]
    8d50:	e6ef3073 	uxtb	r3, r3
    8d54:	e3c33004 	bic	r3, r3, #4
    8d58:	e5c03002 	strb	r3, [r0, #2]
    8d5c:	e6ef3073 	uxtb	r3, r3
    8d60:	e3c33008 	bic	r3, r3, #8
    8d64:	e5c03002 	strb	r3, [r0, #2]
    8d68:	e1d030b2 	ldrh	r3, [r0, #2]
    8d6c:	e59f10a4 	ldr	r1, [pc, #164]	@ 8e18 <vm_map_sec+0x1f4>
    8d70:	e0012a22 	and	r2, r1, r2, lsr #20
    8d74:	e1c33201 	bic	r3, r3, r1, lsl #4
    8d78:	e1832202 	orr	r2, r3, r2, lsl #4
    8d7c:	e1c020b2 	strh	r2, [r0, #2]
    8d80:	e3500000 	cmp	r0, #0
    8d84:	0a00001b 	beq	8df8 <vm_map_sec+0x1d4>
    8d88:	e28dd008 	add	sp, sp, #8
    8d8c:	e8bd41f0 	pop	{r4, r5, r6, r7, r8, lr}
    8d90:	e28dd008 	add	sp, sp, #8
    8d94:	e12fff1e 	bx	lr
    8d98:	e59f307c 	ldr	r3, [pc, #124]	@ 8e1c <vm_map_sec+0x1f8>
    8d9c:	e58d3000 	str	r3, [sp]
    8da0:	e3a03042 	mov	r3, #66	@ 0x42
    8da4:	e59f2074 	ldr	r2, [pc, #116]	@ 8e20 <vm_map_sec+0x1fc>
    8da8:	e59f1074 	ldr	r1, [pc, #116]	@ 8e24 <vm_map_sec+0x200>
    8dac:	e59f0074 	ldr	r0, [pc, #116]	@ 8e28 <vm_map_sec+0x204>
    8db0:	eb0005b5 	bl	a48c <printk>
    8db4:	eb0006e4 	bl	a94c <clean_reboot>
    8db8:	e59f306c 	ldr	r3, [pc, #108]	@ 8e2c <vm_map_sec+0x208>
    8dbc:	e58d3000 	str	r3, [sp]
    8dc0:	e3a03043 	mov	r3, #67	@ 0x43
    8dc4:	e59f2054 	ldr	r2, [pc, #84]	@ 8e20 <vm_map_sec+0x1fc>
    8dc8:	e59f1054 	ldr	r1, [pc, #84]	@ 8e24 <vm_map_sec+0x200>
    8dcc:	e59f0054 	ldr	r0, [pc, #84]	@ 8e28 <vm_map_sec+0x204>
    8dd0:	eb0005ad 	bl	a48c <printk>
    8dd4:	eb0006dc 	bl	a94c <clean_reboot>
    8dd8:	e59f3050 	ldr	r3, [pc, #80]	@ 8e30 <vm_map_sec+0x20c>
    8ddc:	e58d3000 	str	r3, [sp]
    8de0:	e3a03046 	mov	r3, #70	@ 0x46
    8de4:	e59f2034 	ldr	r2, [pc, #52]	@ 8e20 <vm_map_sec+0x1fc>
    8de8:	e59f1034 	ldr	r1, [pc, #52]	@ 8e24 <vm_map_sec+0x200>
    8dec:	e59f0034 	ldr	r0, [pc, #52]	@ 8e28 <vm_map_sec+0x204>
    8df0:	eb0005a5 	bl	a48c <printk>
    8df4:	eb0006d4 	bl	a94c <clean_reboot>
    8df8:	e59f3034 	ldr	r3, [pc, #52]	@ 8e34 <vm_map_sec+0x210>
    8dfc:	e58d3000 	str	r3, [sp]
    8e00:	e3a03061 	mov	r3, #97	@ 0x61
    8e04:	e59f2014 	ldr	r2, [pc, #20]	@ 8e20 <vm_map_sec+0x1fc>
    8e08:	e59f1014 	ldr	r1, [pc, #20]	@ 8e24 <vm_map_sec+0x200>
    8e0c:	e59f0014 	ldr	r0, [pc, #20]	@ 8e28 <vm_map_sec+0x204>
    8e10:	eb00059d 	bl	a48c <printk>
    8e14:	eb0006cc 	bl	a94c <clean_reboot>
    8e18:	00000fff 	.word	0x00000fff
    8e1c:	0000b90c 	.word	0x0000b90c
    8e20:	0000c5d4 	.word	0x0000c5d4
    8e24:	0000b790 	.word	0x0000b790
    8e28:	0000b4cc 	.word	0x0000b4cc
    8e2c:	0000b920 	.word	0x0000b920
    8e30:	0000b934 	.word	0x0000b934
    8e34:	0000b950 	.word	0x0000b950

00008e38 <vm_lookup>:
    8e38:	e1a03000 	mov	r3, r0
    8e3c:	e1a01a21 	lsr	r1, r1, #20
    8e40:	e0800101 	add	r0, r0, r1, lsl #2
    8e44:	e7d33101 	ldrb	r3, [r3, r1, lsl #2]
    8e48:	e3130003 	tst	r3, #3
    8e4c:	112fff1e 	bxne	lr
    8e50:	e3a00000 	mov	r0, #0
    8e54:	e12fff1e 	bx	lr

00008e58 <vm_xlate>:
    8e58:	e1a03000 	mov	r3, r0
    8e5c:	e1a0ca22 	lsr	ip, r2, #20
    8e60:	e081010c 	add	r0, r1, ip, lsl #2
    8e64:	e7d1110c 	ldrb	r1, [r1, ip, lsl #2]
    8e68:	e3110003 	tst	r1, #3
    8e6c:	0a000006 	beq	8e8c <vm_xlate+0x34>
    8e70:	e1d010b2 	ldrh	r1, [r0, #2]
    8e74:	e1a01221 	lsr	r1, r1, #4
    8e78:	e3c224ff 	bic	r2, r2, #-16777216	@ 0xff000000
    8e7c:	e3c2260f 	bic	r2, r2, #15728640	@ 0xf00000
    8e80:	e1822a01 	orr	r2, r2, r1, lsl #20
    8e84:	e5832000 	str	r2, [r3]
    8e88:	e12fff1e 	bx	lr
    8e8c:	e3a00000 	mov	r0, #0
    8e90:	e12fff1e 	bx	lr

00008e94 <vm_map_kernel>:
    8e94:	e92d40f0 	push	{r4, r5, r6, r7, lr}
    8e98:	e24dd02c 	sub	sp, sp, #44	@ 0x2c
    8e9c:	e1a05000 	mov	r5, r0
    8ea0:	e1a07001 	mov	r7, r1
    8ea4:	e3a01001 	mov	r1, #1
    8ea8:	e5900004 	ldr	r0, [r0, #4]
    8eac:	ebfffdda 	bl	861c <dom_perm>
    8eb0:	ebffff55 	bl	8c0c <vm_mmu_init>
    8eb4:	e3a00a01 	mov	r0, #4096	@ 0x1000
    8eb8:	ebfffed0 	bl	8a00 <vm_pt_alloc>
    8ebc:	e1a06000 	mov	r6, r0
    8ec0:	e3a04000 	mov	r4, #0
    8ec4:	e5953000 	ldr	r3, [r5]
    8ec8:	e1530004 	cmp	r3, r4
    8ecc:	9a00001d 	bls	8f48 <vm_map_kernel+0xb4>
    8ed0:	e1a03204 	lsl	r3, r4, #4
    8ed4:	e2831008 	add	r1, r3, #8
    8ed8:	e0851001 	add	r1, r5, r1
    8edc:	e0853003 	add	r3, r5, r3
    8ee0:	e593300c 	ldr	r3, [r3, #12]
    8ee4:	e3530601 	cmp	r3, #1048576	@ 0x100000
    8ee8:	1a00000d 	bne	8f24 <vm_map_kernel+0x90>
    8eec:	e28d0014 	add	r0, sp, #20
    8ef0:	ebfffe70 	bl	88b8 <attr_mk>
    8ef4:	e0853204 	add	r3, r5, r4, lsl #4
    8ef8:	e593c008 	ldr	ip, [r3, #8]
    8efc:	e28d3028 	add	r3, sp, #40	@ 0x28
    8f00:	e913000f 	ldmdb	r3, {r0, r1, r2, r3}
    8f04:	e88d000f 	stm	sp, {r0, r1, r2, r3}
    8f08:	e59d3014 	ldr	r3, [sp, #20]
    8f0c:	e1a0200c 	mov	r2, ip
    8f10:	e1a0100c 	mov	r1, ip
    8f14:	e1a00006 	mov	r0, r6
    8f18:	ebffff41 	bl	8c24 <vm_map_sec>
    8f1c:	e2844001 	add	r4, r4, #1
    8f20:	eaffffe7 	b	8ec4 <vm_map_kernel+0x30>
    8f24:	e58d3004 	str	r3, [sp, #4]
    8f28:	e59f306c 	ldr	r3, [pc, #108]	@ 8f9c <vm_map_kernel+0x108>
    8f2c:	e58d3000 	str	r3, [sp]
    8f30:	e3a0309f 	mov	r3, #159	@ 0x9f
    8f34:	e59f2064 	ldr	r2, [pc, #100]	@ 8fa0 <vm_map_kernel+0x10c>
    8f38:	e59f1064 	ldr	r1, [pc, #100]	@ 8fa4 <vm_map_kernel+0x110>
    8f3c:	e59f0064 	ldr	r0, [pc, #100]	@ 8fa8 <vm_map_kernel+0x114>
    8f40:	eb000551 	bl	a48c <printk>
    8f44:	eb000680 	bl	a94c <clean_reboot>
    8f48:	e3a02001 	mov	r2, #1
    8f4c:	e59f1058 	ldr	r1, [pc, #88]	@ 8fac <vm_map_kernel+0x118>
    8f50:	e1a00006 	mov	r0, r6
    8f54:	ebffff16 	bl	8bb4 <vm_mmu_switch>
    8f58:	e3570000 	cmp	r7, #0
    8f5c:	1a000004 	bne	8f74 <vm_map_kernel+0xe0>
    8f60:	e3560000 	cmp	r6, #0
    8f64:	0a000004 	beq	8f7c <vm_map_kernel+0xe8>
    8f68:	e1a00006 	mov	r0, r6
    8f6c:	e28dd02c 	add	sp, sp, #44	@ 0x2c
    8f70:	e8bd80f0 	pop	{r4, r5, r6, r7, pc}
    8f74:	ebfffd4b 	bl	84a8 <mmu_enable>
    8f78:	eafffff8 	b	8f60 <vm_map_kernel+0xcc>
    8f7c:	e59f302c 	ldr	r3, [pc, #44]	@ 8fb0 <vm_map_kernel+0x11c>
    8f80:	e58d3000 	str	r3, [sp]
    8f84:	e3a030ab 	mov	r3, #171	@ 0xab
    8f88:	e59f2010 	ldr	r2, [pc, #16]	@ 8fa0 <vm_map_kernel+0x10c>
    8f8c:	e59f1010 	ldr	r1, [pc, #16]	@ 8fa4 <vm_map_kernel+0x110>
    8f90:	e59f001c 	ldr	r0, [pc, #28]	@ 8fb4 <vm_map_kernel+0x120>
    8f94:	eb00053c 	bl	a48c <printk>
    8f98:	eb00066b 	bl	a94c <clean_reboot>
    8f9c:	0000b98c 	.word	0x0000b98c
    8fa0:	0000c5e0 	.word	0x0000c5e0
    8fa4:	0000b790 	.word	0x0000b790
    8fa8:	0000b954 	.word	0x0000b954
    8fac:	0000140e 	.word	0x0000140e
    8fb0:	0000b908 	.word	0x0000b908
    8fb4:	0000b4cc 	.word	0x0000b4cc

00008fb8 <staff_vm_pt_alloc>:
    8fb8:	e52de004 	push	{lr}		@ (str lr, [sp, #-4]!)
    8fbc:	e24dd00c 	sub	sp, sp, #12
    8fc0:	e3500a01 	cmp	r0, #4096	@ 0x1000
    8fc4:	1a000008 	bne	8fec <staff_vm_pt_alloc+0x34>
    8fc8:	e3a01901 	mov	r1, #16384	@ 0x4000
    8fcc:	e1a00001 	mov	r0, r1
    8fd0:	eb000821 	bl	b05c <kmalloc_aligned>
    8fd4:	e1a03900 	lsl	r3, r0, #18
    8fd8:	e1a03923 	lsr	r3, r3, #18
    8fdc:	e3530000 	cmp	r3, #0
    8fe0:	1a000009 	bne	900c <staff_vm_pt_alloc+0x54>
    8fe4:	e28dd00c 	add	sp, sp, #12
    8fe8:	e49df004 	pop	{pc}		@ (ldr pc, [sp], #4)
    8fec:	e59f3038 	ldr	r3, [pc, #56]	@ 902c <staff_vm_pt_alloc+0x74>
    8ff0:	e58d3000 	str	r3, [sp]
    8ff4:	e3a0300f 	mov	r3, #15
    8ff8:	e59f2030 	ldr	r2, [pc, #48]	@ 9030 <staff_vm_pt_alloc+0x78>
    8ffc:	e59f1030 	ldr	r1, [pc, #48]	@ 9034 <staff_vm_pt_alloc+0x7c>
    9000:	e59f0030 	ldr	r0, [pc, #48]	@ 9038 <staff_vm_pt_alloc+0x80>
    9004:	eb000520 	bl	a48c <printk>
    9008:	eb00064f 	bl	a94c <clean_reboot>
    900c:	e59f3028 	ldr	r3, [pc, #40]	@ 903c <staff_vm_pt_alloc+0x84>
    9010:	e58d3000 	str	r3, [sp]
    9014:	e3a03016 	mov	r3, #22
    9018:	e59f2010 	ldr	r2, [pc, #16]	@ 9030 <staff_vm_pt_alloc+0x78>
    901c:	e59f1010 	ldr	r1, [pc, #16]	@ 9034 <staff_vm_pt_alloc+0x7c>
    9020:	e59f0018 	ldr	r0, [pc, #24]	@ 9040 <staff_vm_pt_alloc+0x88>
    9024:	eb000518 	bl	a48c <printk>
    9028:	eb000647 	bl	a94c <clean_reboot>
    902c:	0000b864 	.word	0x0000b864
    9030:	0000c5f0 	.word	0x0000c5f0
    9034:	0000b9a0 	.word	0x0000b9a0
    9038:	0000b800 	.word	0x0000b800
    903c:	0000b8b4 	.word	0x0000b8b4
    9040:	0000b870 	.word	0x0000b870
    9044:	e92d4070 	push	{r4, r5, r6, lr}
    9048:	e1a05000 	mov	r5, r0
    904c:	e3a00a01 	mov	r0, #4096	@ 0x1000
    9050:	ebffffd8 	bl	8fb8 <staff_vm_pt_alloc>
    9054:	e1a04000 	mov	r4, r0
    9058:	e3a02901 	mov	r2, #16384	@ 0x4000
    905c:	e1a01005 	mov	r1, r5
    9060:	eb0004de 	bl	a3e0 <memcpy>
    9064:	e1a00004 	mov	r0, r4
    9068:	e8bd8070 	pop	{r4, r5, r6, pc}
    906c:	e52de004 	push	{lr}		@ (str lr, [sp, #-4]!)
    9070:	e24dd00c 	sub	sp, sp, #12
    9074:	ebfffcc4 	bl	838c <mmu_is_enabled>
    9078:	e3500000 	cmp	r0, #0
    907c:	1a000005 	bne	9098 <staff_vm_pt_alloc+0xe0>
    9080:	ebfffd08 	bl	84a8 <mmu_enable>
    9084:	ebfffcc0 	bl	838c <mmu_is_enabled>
    9088:	e3500000 	cmp	r0, #0
    908c:	0a000009 	beq	90b8 <staff_vm_pt_alloc+0x100>
    9090:	e28dd00c 	add	sp, sp, #12
    9094:	e49df004 	pop	{pc}		@ (ldr pc, [sp], #4)
    9098:	e59f3038 	ldr	r3, [pc, #56]	@ 90d8 <staff_vm_pt_alloc+0x120>
    909c:	e58d3000 	str	r3, [sp]
    90a0:	e3a03027 	mov	r3, #39	@ 0x27
    90a4:	e59f2030 	ldr	r2, [pc, #48]	@ 90dc <staff_vm_pt_alloc+0x124>
    90a8:	e59f1030 	ldr	r1, [pc, #48]	@ 90e0 <staff_vm_pt_alloc+0x128>
    90ac:	e59f0030 	ldr	r0, [pc, #48]	@ 90e4 <staff_vm_pt_alloc+0x12c>
    90b0:	eb0004f5 	bl	a48c <printk>
    90b4:	eb000624 	bl	a94c <clean_reboot>
    90b8:	e59f3028 	ldr	r3, [pc, #40]	@ 90e8 <staff_vm_pt_alloc+0x130>
    90bc:	e58d3000 	str	r3, [sp]
    90c0:	e3a03029 	mov	r3, #41	@ 0x29
    90c4:	e59f2010 	ldr	r2, [pc, #16]	@ 90dc <staff_vm_pt_alloc+0x124>
    90c8:	e59f1010 	ldr	r1, [pc, #16]	@ 90e0 <staff_vm_pt_alloc+0x128>
    90cc:	e59f0010 	ldr	r0, [pc, #16]	@ 90e4 <staff_vm_pt_alloc+0x12c>
    90d0:	eb0004ed 	bl	a48c <printk>
    90d4:	eb00061c 	bl	a94c <clean_reboot>
    90d8:	0000b8e0 	.word	0x0000b8e0
    90dc:	0000c604 	.word	0x0000c604
    90e0:	0000b9a0 	.word	0x0000b9a0
    90e4:	0000b4cc 	.word	0x0000b4cc
    90e8:	0000b8f4 	.word	0x0000b8f4
    90ec:	e52de004 	push	{lr}		@ (str lr, [sp, #-4]!)
    90f0:	e24dd00c 	sub	sp, sp, #12
    90f4:	ebfffca4 	bl	838c <mmu_is_enabled>
    90f8:	e3500000 	cmp	r0, #0
    90fc:	0a000005 	beq	9118 <staff_vm_pt_alloc+0x160>
    9100:	ebfffcc0 	bl	8408 <mmu_disable>
    9104:	ebfffca0 	bl	838c <mmu_is_enabled>
    9108:	e3500000 	cmp	r0, #0
    910c:	1a000009 	bne	9138 <staff_vm_pt_alloc+0x180>
    9110:	e28dd00c 	add	sp, sp, #12
    9114:	e49df004 	pop	{pc}		@ (ldr pc, [sp], #4)
    9118:	e59f3038 	ldr	r3, [pc, #56]	@ 9158 <staff_vm_pt_alloc+0x1a0>
    911c:	e58d3000 	str	r3, [sp]
    9120:	e3a0302e 	mov	r3, #46	@ 0x2e
    9124:	e59f2030 	ldr	r2, [pc, #48]	@ 915c <staff_vm_pt_alloc+0x1a4>
    9128:	e59f1030 	ldr	r1, [pc, #48]	@ 9160 <staff_vm_pt_alloc+0x1a8>
    912c:	e59f0030 	ldr	r0, [pc, #48]	@ 9164 <staff_vm_pt_alloc+0x1ac>
    9130:	eb0004d5 	bl	a48c <printk>
    9134:	eb000604 	bl	a94c <clean_reboot>
    9138:	e59f3028 	ldr	r3, [pc, #40]	@ 9168 <staff_vm_pt_alloc+0x1b0>
    913c:	e58d3000 	str	r3, [sp]
    9140:	e3a03030 	mov	r3, #48	@ 0x30
    9144:	e59f2010 	ldr	r2, [pc, #16]	@ 915c <staff_vm_pt_alloc+0x1a4>
    9148:	e59f1010 	ldr	r1, [pc, #16]	@ 9160 <staff_vm_pt_alloc+0x1a8>
    914c:	e59f0010 	ldr	r0, [pc, #16]	@ 9164 <staff_vm_pt_alloc+0x1ac>
    9150:	eb0004cd 	bl	a48c <printk>
    9154:	eb0005fc 	bl	a94c <clean_reboot>
    9158:	0000b8f4 	.word	0x0000b8f4
    915c:	0000c614 	.word	0x0000c614
    9160:	0000b9a0 	.word	0x0000b9a0
    9164:	0000b4cc 	.word	0x0000b4cc
    9168:	0000b8e0 	.word	0x0000b8e0
    916c:	e52de004 	push	{lr}		@ (str lr, [sp, #-4]!)
    9170:	e24dd00c 	sub	sp, sp, #12
    9174:	e1a03000 	mov	r3, r0
    9178:	e1a00001 	mov	r0, r1
    917c:	e1a01002 	mov	r1, r2
    9180:	e2532000 	subs	r2, r3, #0
    9184:	0a000008 	beq	91ac <staff_vm_pt_alloc+0x1f4>
    9188:	e3510000 	cmp	r1, #0
    918c:	0a00000e 	beq	91cc <staff_vm_pt_alloc+0x214>
    9190:	e351003f 	cmp	r1, #63	@ 0x3f
    9194:	8a000014 	bhi	91ec <staff_vm_pt_alloc+0x234>
    9198:	e3500040 	cmp	r0, #64	@ 0x40
    919c:	9a00001a 	bls	920c <staff_vm_pt_alloc+0x254>
    91a0:	ebfffcd5 	bl	84fc <set_procid_ttbr0>
    91a4:	e28dd00c 	add	sp, sp, #12
    91a8:	e49df004 	pop	{pc}		@ (ldr pc, [sp], #4)
    91ac:	e59f3078 	ldr	r3, [pc, #120]	@ 922c <staff_vm_pt_alloc+0x274>
    91b0:	e58d3000 	str	r3, [sp]
    91b4:	e3a03035 	mov	r3, #53	@ 0x35
    91b8:	e59f2070 	ldr	r2, [pc, #112]	@ 9230 <staff_vm_pt_alloc+0x278>
    91bc:	e59f1070 	ldr	r1, [pc, #112]	@ 9234 <staff_vm_pt_alloc+0x27c>
    91c0:	e59f0070 	ldr	r0, [pc, #112]	@ 9238 <staff_vm_pt_alloc+0x280>
    91c4:	eb0004b0 	bl	a48c <printk>
    91c8:	eb0005df 	bl	a94c <clean_reboot>
    91cc:	e59f3068 	ldr	r3, [pc, #104]	@ 923c <staff_vm_pt_alloc+0x284>
    91d0:	e58d3000 	str	r3, [sp]
    91d4:	e3a030b4 	mov	r3, #180	@ 0xb4
    91d8:	e59f2060 	ldr	r2, [pc, #96]	@ 9240 <staff_vm_pt_alloc+0x288>
    91dc:	e59f1060 	ldr	r1, [pc, #96]	@ 9244 <staff_vm_pt_alloc+0x28c>
    91e0:	e59f0050 	ldr	r0, [pc, #80]	@ 9238 <staff_vm_pt_alloc+0x280>
    91e4:	eb0004a8 	bl	a48c <printk>
    91e8:	eb0005d7 	bl	a94c <clean_reboot>
    91ec:	e59f3054 	ldr	r3, [pc, #84]	@ 9248 <staff_vm_pt_alloc+0x290>
    91f0:	e58d3000 	str	r3, [sp]
    91f4:	e3a030b5 	mov	r3, #181	@ 0xb5
    91f8:	e59f2040 	ldr	r2, [pc, #64]	@ 9240 <staff_vm_pt_alloc+0x288>
    91fc:	e59f1040 	ldr	r1, [pc, #64]	@ 9244 <staff_vm_pt_alloc+0x28c>
    9200:	e59f0030 	ldr	r0, [pc, #48]	@ 9238 <staff_vm_pt_alloc+0x280>
    9204:	eb0004a0 	bl	a48c <printk>
    9208:	eb0005cf 	bl	a94c <clean_reboot>
    920c:	e59f3038 	ldr	r3, [pc, #56]	@ 924c <staff_vm_pt_alloc+0x294>
    9210:	e58d3000 	str	r3, [sp]
    9214:	e3a030b6 	mov	r3, #182	@ 0xb6
    9218:	e59f2020 	ldr	r2, [pc, #32]	@ 9240 <staff_vm_pt_alloc+0x288>
    921c:	e59f1020 	ldr	r1, [pc, #32]	@ 9244 <staff_vm_pt_alloc+0x28c>
    9220:	e59f0010 	ldr	r0, [pc, #16]	@ 9238 <staff_vm_pt_alloc+0x280>
    9224:	eb000498 	bl	a48c <printk>
    9228:	eb0005c7 	bl	a94c <clean_reboot>
    922c:	0000b908 	.word	0x0000b908
    9230:	0000c624 	.word	0x0000c624
    9234:	0000b9a0 	.word	0x0000b9a0
    9238:	0000b4cc 	.word	0x0000b4cc
    923c:	0000b7e8 	.word	0x0000b7e8
    9240:	0000c634 	.word	0x0000c634
    9244:	0000b9b0 	.word	0x0000b9b0
    9248:	0000b7f0 	.word	0x0000b7f0
    924c:	0000b7f8 	.word	0x0000b7f8
    9250:	e92d4010 	push	{r4, lr}
    9254:	e1a04000 	mov	r4, r0
    9258:	ebfffcd4 	bl	85b0 <mmu_init>
    925c:	e1a00004 	mov	r0, r4
    9260:	ebfffcd8 	bl	85c8 <domain_access_ctrl_set>
    9264:	e8bd8010 	pop	{r4, pc}

00009268 <staff_vm_map_sec>:
    9268:	e24dd008 	sub	sp, sp, #8
    926c:	e92d4030 	push	{r4, r5, lr}
    9270:	e24dd00c 	sub	sp, sp, #12
    9274:	e58d301c 	str	r3, [sp, #28]
    9278:	e3c134ff 	bic	r3, r1, #-16777216	@ 0xff000000
    927c:	e3c3360f 	bic	r3, r3, #15728640	@ 0xf00000
    9280:	e3530000 	cmp	r3, #0
    9284:	1a000044 	bne	939c <staff_vm_map_sec+0x134>
    9288:	e3c234ff 	bic	r3, r2, #-16777216	@ 0xff000000
    928c:	e3c3360f 	bic	r3, r3, #15728640	@ 0xf00000
    9290:	e3530000 	cmp	r3, #0
    9294:	1a000048 	bne	93bc <staff_vm_map_sec+0x154>
    9298:	e59d3028 	ldr	r3, [sp, #40]	@ 0x28
    929c:	e3530003 	cmp	r3, #3
    92a0:	1a00004d 	bne	93dc <staff_vm_map_sec+0x174>
    92a4:	e1a01a21 	lsr	r1, r1, #20
    92a8:	e1a0c101 	lsl	ip, r1, #2
    92ac:	e0804101 	add	r4, r0, r1, lsl #2
    92b0:	e7d03101 	ldrb	r3, [r0, r1, lsl #2]
    92b4:	e3130003 	tst	r3, #3
    92b8:	1a00004f 	bne	93fc <staff_vm_map_sec+0x194>
    92bc:	e3a03002 	mov	r3, #2
    92c0:	e7803101 	str	r3, [r0, r1, lsl #2]
    92c4:	e5d43002 	ldrb	r3, [r4, #2]
    92c8:	e59de01c 	ldr	lr, [sp, #28]
    92cc:	e16fef1e 	clz	lr, lr
    92d0:	e1a0e2ae 	lsr	lr, lr, #5
    92d4:	e3c33002 	bic	r3, r3, #2
    92d8:	e183308e 	orr	r3, r3, lr, lsl #1
    92dc:	e5c43002 	strb	r3, [r4, #2]
    92e0:	e5dd302d 	ldrb	r3, [sp, #45]	@ 0x2d
    92e4:	e7d0e101 	ldrb	lr, [r0, r1, lsl #2]
    92e8:	e2035001 	and	r5, r3, #1
    92ec:	e3cee004 	bic	lr, lr, #4
    92f0:	e18ee105 	orr	lr, lr, r5, lsl #2
    92f4:	e7c0e101 	strb	lr, [r0, r1, lsl #2]
    92f8:	e1a050a3 	lsr	r5, r3, #1
    92fc:	e6efe07e 	uxtb	lr, lr
    9300:	e2055001 	and	r5, r5, #1
    9304:	e3cee008 	bic	lr, lr, #8
    9308:	e18ee185 	orr	lr, lr, r5, lsl #3
    930c:	e7c0e101 	strb	lr, [r0, r1, lsl #2]
    9310:	e1a03123 	lsr	r3, r3, #2
    9314:	e5d4e001 	ldrb	lr, [r4, #1]
    9318:	e2033007 	and	r3, r3, #7
    931c:	e3cee070 	bic	lr, lr, #112	@ 0x70
    9320:	e18e3203 	orr	r3, lr, r3, lsl #4
    9324:	e5c43001 	strb	r3, [r4, #1]
    9328:	e5dde02c 	ldrb	lr, [sp, #44]	@ 0x2c
    932c:	e6ef3073 	uxtb	r3, r3
    9330:	e20ee003 	and	lr, lr, #3
    9334:	e3c3300c 	bic	r3, r3, #12
    9338:	e183310e 	orr	r3, r3, lr, lsl #2
    933c:	e5c43001 	strb	r3, [r4, #1]
    9340:	e19030bc 	ldrh	r3, [r0, ip]
    9344:	e59de024 	ldr	lr, [sp, #36]	@ 0x24
    9348:	e20ee00f 	and	lr, lr, #15
    934c:	e3c33e1e 	bic	r3, r3, #480	@ 0x1e0
    9350:	e183328e 	orr	r3, r3, lr, lsl #5
    9354:	e18030bc 	strh	r3, [r0, ip]
    9358:	e7d03101 	ldrb	r3, [r0, r1, lsl #2]
    935c:	e3c33010 	bic	r3, r3, #16
    9360:	e7c03101 	strb	r3, [r0, r1, lsl #2]
    9364:	e1d430b2 	ldrh	r3, [r4, #2]
    9368:	e59f10b4 	ldr	r1, [pc, #180]	@ 9424 <staff_vm_map_sec+0x1bc>
    936c:	e0012a22 	and	r2, r1, r2, lsr #20
    9370:	e1c33201 	bic	r3, r3, r1, lsl #4
    9374:	e1832202 	orr	r2, r3, r2, lsl #4
    9378:	e1c420b2 	strh	r2, [r4, #2]
    937c:	ebfffc02 	bl	838c <mmu_is_enabled>
    9380:	e3500000 	cmp	r0, #0
    9384:	1a000024 	bne	941c <staff_vm_map_sec+0x1b4>
    9388:	e1a00004 	mov	r0, r4
    938c:	e28dd00c 	add	sp, sp, #12
    9390:	e8bd4030 	pop	{r4, r5, lr}
    9394:	e28dd008 	add	sp, sp, #8
    9398:	e12fff1e 	bx	lr
    939c:	e59f3084 	ldr	r3, [pc, #132]	@ 9428 <staff_vm_map_sec+0x1c0>
    93a0:	e58d3000 	str	r3, [sp]
    93a4:	e3a03043 	mov	r3, #67	@ 0x43
    93a8:	e59f207c 	ldr	r2, [pc, #124]	@ 942c <staff_vm_map_sec+0x1c4>
    93ac:	e59f107c 	ldr	r1, [pc, #124]	@ 9430 <staff_vm_map_sec+0x1c8>
    93b0:	e59f007c 	ldr	r0, [pc, #124]	@ 9434 <staff_vm_map_sec+0x1cc>
    93b4:	eb000434 	bl	a48c <printk>
    93b8:	eb000563 	bl	a94c <clean_reboot>
    93bc:	e59f3074 	ldr	r3, [pc, #116]	@ 9438 <staff_vm_map_sec+0x1d0>
    93c0:	e58d3000 	str	r3, [sp]
    93c4:	e3a03044 	mov	r3, #68	@ 0x44
    93c8:	e59f205c 	ldr	r2, [pc, #92]	@ 942c <staff_vm_map_sec+0x1c4>
    93cc:	e59f105c 	ldr	r1, [pc, #92]	@ 9430 <staff_vm_map_sec+0x1c8>
    93d0:	e59f005c 	ldr	r0, [pc, #92]	@ 9434 <staff_vm_map_sec+0x1cc>
    93d4:	eb00042c 	bl	a48c <printk>
    93d8:	eb00055b 	bl	a94c <clean_reboot>
    93dc:	e59f3058 	ldr	r3, [pc, #88]	@ 943c <staff_vm_map_sec+0x1d4>
    93e0:	e58d3000 	str	r3, [sp]
    93e4:	e3a03047 	mov	r3, #71	@ 0x47
    93e8:	e59f203c 	ldr	r2, [pc, #60]	@ 942c <staff_vm_map_sec+0x1c4>
    93ec:	e59f103c 	ldr	r1, [pc, #60]	@ 9430 <staff_vm_map_sec+0x1c8>
    93f0:	e59f003c 	ldr	r0, [pc, #60]	@ 9434 <staff_vm_map_sec+0x1cc>
    93f4:	eb000424 	bl	a48c <printk>
    93f8:	eb000553 	bl	a94c <clean_reboot>
    93fc:	e59f303c 	ldr	r3, [pc, #60]	@ 9440 <staff_vm_map_sec+0x1d8>
    9400:	e58d3000 	str	r3, [sp]
    9404:	e3a0304d 	mov	r3, #77	@ 0x4d
    9408:	e59f201c 	ldr	r2, [pc, #28]	@ 942c <staff_vm_map_sec+0x1c4>
    940c:	e59f101c 	ldr	r1, [pc, #28]	@ 9430 <staff_vm_map_sec+0x1c8>
    9410:	e59f002c 	ldr	r0, [pc, #44]	@ 9444 <staff_vm_map_sec+0x1dc>
    9414:	eb00041c 	bl	a48c <printk>
    9418:	eb00054b 	bl	a94c <clean_reboot>
    941c:	eb000dba 	bl	cb0c <staff_mmu_sync_pte_mods>
    9420:	eaffffd8 	b	9388 <staff_vm_map_sec+0x120>
    9424:	00000fff 	.word	0x00000fff
    9428:	0000b90c 	.word	0x0000b90c
    942c:	0000c640 	.word	0x0000c640
    9430:	0000b9a0 	.word	0x0000b9a0
    9434:	0000b4cc 	.word	0x0000b4cc
    9438:	0000b920 	.word	0x0000b920
    943c:	0000b934 	.word	0x0000b934
    9440:	0000ba04 	.word	0x0000ba04
    9444:	0000b9cc 	.word	0x0000b9cc

00009448 <staff_vm_lookup>:
    9448:	e1a03000 	mov	r3, r0
    944c:	e1a01a21 	lsr	r1, r1, #20
    9450:	e0800101 	add	r0, r0, r1, lsl #2
    9454:	e7d33101 	ldrb	r3, [r3, r1, lsl #2]
    9458:	e3130003 	tst	r3, #3
    945c:	112fff1e 	bxne	lr
    9460:	e3a00000 	mov	r0, #0
    9464:	e12fff1e 	bx	lr

00009468 <staff_vm_xlate>:
    9468:	e92d4070 	push	{r4, r5, r6, lr}
    946c:	e1a05000 	mov	r5, r0
    9470:	e1a00001 	mov	r0, r1
    9474:	e1a04002 	mov	r4, r2
    9478:	e1a01002 	mov	r1, r2
    947c:	ebfffff1 	bl	9448 <staff_vm_lookup>
    9480:	e3500000 	cmp	r0, #0
    9484:	08bd8070 	popeq	{r4, r5, r6, pc}
    9488:	e1d020b2 	ldrh	r2, [r0, #2]
    948c:	e1a03222 	lsr	r3, r2, #4
    9490:	e3c424ff 	bic	r2, r4, #-16777216	@ 0xff000000
    9494:	e3c2260f 	bic	r2, r2, #15728640	@ 0xf00000
    9498:	e1822a03 	orr	r2, r2, r3, lsl #20
    949c:	e5852000 	str	r2, [r5]
    94a0:	e8bd8070 	pop	{r4, r5, r6, pc}

000094a4 <vm_attr_set>:
    94a4:	e92d40f0 	push	{r4, r5, r6, r7, lr}
    94a8:	e24dd00c 	sub	sp, sp, #12
    94ac:	e1a07000 	mov	r7, r0
    94b0:	e1a04001 	mov	r4, r1
    94b4:	e1a06002 	mov	r6, r2
    94b8:	e1a01003 	mov	r1, r3
    94bc:	e1a020a3 	lsr	r2, r3, #1
    94c0:	e1a03123 	lsr	r3, r3, #2
    94c4:	e2033007 	and	r3, r3, #7
    94c8:	e2022001 	and	r2, r2, #1
    94cc:	e2011001 	and	r1, r1, #1
    94d0:	e59f0080 	ldr	r0, [pc, #128]	@ 9558 <vm_attr_set+0xb4>
    94d4:	eb0003ec 	bl	a48c <printk>
    94d8:	e3a05000 	mov	r5, #0
    94dc:	e1550006 	cmp	r5, r6
    94e0:	2a000018 	bcs	9548 <vm_attr_set+0xa4>
    94e4:	e1a01004 	mov	r1, r4
    94e8:	e1a00007 	mov	r0, r7
    94ec:	ebffffd5 	bl	9448 <staff_vm_lookup>
    94f0:	e3500000 	cmp	r0, #0
    94f4:	0a00000c 	beq	952c <vm_attr_set+0x88>
    94f8:	e5d03000 	ldrb	r3, [r0]
    94fc:	e3833004 	orr	r3, r3, #4
    9500:	e5c03000 	strb	r3, [r0]
    9504:	e6ef3073 	uxtb	r3, r3
    9508:	e3833008 	orr	r3, r3, #8
    950c:	e5c03000 	strb	r3, [r0]
    9510:	e5d03001 	ldrb	r3, [r0, #1]
    9514:	e3c33060 	bic	r3, r3, #96	@ 0x60
    9518:	e3833010 	orr	r3, r3, #16
    951c:	e5c03001 	strb	r3, [r0, #1]
    9520:	e2855001 	add	r5, r5, #1
    9524:	e2844601 	add	r4, r4, #1048576	@ 0x100000
    9528:	eaffffeb 	b	94dc <vm_attr_set+0x38>
    952c:	e58d4000 	str	r4, [sp]
    9530:	e3a03082 	mov	r3, #130	@ 0x82
    9534:	e59f2020 	ldr	r2, [pc, #32]	@ 955c <vm_attr_set+0xb8>
    9538:	e59f1020 	ldr	r1, [pc, #32]	@ 9560 <vm_attr_set+0xbc>
    953c:	e59f0020 	ldr	r0, [pc, #32]	@ 9564 <vm_attr_set+0xc0>
    9540:	eb0003d1 	bl	a48c <printk>
    9544:	eb000500 	bl	a94c <clean_reboot>
    9548:	eb000d6f 	bl	cb0c <staff_mmu_sync_pte_mods>
    954c:	e3a00001 	mov	r0, #1
    9550:	e28dd00c 	add	sp, sp, #12
    9554:	e8bd80f0 	pop	{r4, r5, r6, r7, pc}
    9558:	0000ba10 	.word	0x0000ba10
    955c:	0000c654 	.word	0x0000c654
    9560:	0000b9a0 	.word	0x0000b9a0
    9564:	0000ba24 	.word	0x0000ba24

00009568 <staff_vm_map_kernel>:
    9568:	e92d41f0 	push	{r4, r5, r6, r7, r8, lr}
    956c:	e24dd028 	sub	sp, sp, #40	@ 0x28
    9570:	e1a05000 	mov	r5, r0
    9574:	e1a06001 	mov	r6, r1
    9578:	e3a00000 	mov	r0, #0
    957c:	eb0002ac 	bl	a034 <full_except_install>
    9580:	e5951004 	ldr	r1, [r5, #4]
    9584:	e3510000 	cmp	r1, #0
    9588:	0a000004 	beq	95a0 <staff_vm_map_kernel+0x38>
    958c:	e1b04821 	lsrs	r4, r1, #16
    9590:	1a00000a 	bne	95c0 <staff_vm_map_kernel+0x58>
    9594:	e1a03004 	mov	r3, r4
    9598:	e1a00004 	mov	r0, r4
    959c:	ea000010 	b	95e4 <staff_vm_map_kernel+0x7c>
    95a0:	e59f3218 	ldr	r3, [pc, #536]	@ 97c0 <staff_vm_map_kernel+0x258>
    95a4:	e58d3000 	str	r3, [sp]
    95a8:	e3a03030 	mov	r3, #48	@ 0x30
    95ac:	e59f2210 	ldr	r2, [pc, #528]	@ 97c4 <staff_vm_map_kernel+0x25c>
    95b0:	e59f1210 	ldr	r1, [pc, #528]	@ 97c8 <staff_vm_map_kernel+0x260>
    95b4:	e59f0210 	ldr	r0, [pc, #528]	@ 97cc <staff_vm_map_kernel+0x264>
    95b8:	eb0003b3 	bl	a48c <printk>
    95bc:	eb0004e2 	bl	a94c <clean_reboot>
    95c0:	e59f3208 	ldr	r3, [pc, #520]	@ 97d0 <staff_vm_map_kernel+0x268>
    95c4:	e58d3000 	str	r3, [sp]
    95c8:	e3a03031 	mov	r3, #49	@ 0x31
    95cc:	e59f21f0 	ldr	r2, [pc, #496]	@ 97c4 <staff_vm_map_kernel+0x25c>
    95d0:	e59f11f0 	ldr	r1, [pc, #496]	@ 97c8 <staff_vm_map_kernel+0x260>
    95d4:	e59f01f0 	ldr	r0, [pc, #496]	@ 97cc <staff_vm_map_kernel+0x264>
    95d8:	eb0003ab 	bl	a48c <printk>
    95dc:	eb0004da 	bl	a94c <clean_reboot>
    95e0:	e2833001 	add	r3, r3, #1
    95e4:	e353000f 	cmp	r3, #15
    95e8:	8a000005 	bhi	9604 <staff_vm_map_kernel+0x9c>
    95ec:	e3a02001 	mov	r2, #1
    95f0:	e0112312 	ands	r2, r1, r2, lsl r3
    95f4:	11a02083 	lslne	r2, r3, #1
    95f8:	13a0c001 	movne	ip, #1
    95fc:	1180021c 	orrne	r0, r0, ip, lsl r2
    9600:	eafffff6 	b	95e0 <staff_vm_map_kernel+0x78>
    9604:	ebfffd80 	bl	8c0c <vm_mmu_init>
    9608:	e3a00a01 	mov	r0, #4096	@ 0x1000
    960c:	ebfffe69 	bl	8fb8 <staff_vm_pt_alloc>
    9610:	e1a07000 	mov	r7, r0
    9614:	ea000021 	b	96a0 <staff_vm_map_kernel+0x138>
    9618:	e59f31b4 	ldr	r3, [pc, #436]	@ 97d4 <staff_vm_map_kernel+0x26c>
    961c:	e58d3000 	str	r3, [sp]
    9620:	e3a03093 	mov	r3, #147	@ 0x93
    9624:	e59f21ac 	ldr	r2, [pc, #428]	@ 97d8 <staff_vm_map_kernel+0x270>
    9628:	e59f11ac 	ldr	r1, [pc, #428]	@ 97dc <staff_vm_map_kernel+0x274>
    962c:	e59f01ac 	ldr	r0, [pc, #428]	@ 97e0 <staff_vm_map_kernel+0x278>
    9630:	eb000395 	bl	a48c <printk>
    9634:	eb0004c4 	bl	a94c <clean_reboot>
    9638:	e592300c 	ldr	r3, [r2, #12]
    963c:	e3530010 	cmp	r3, #16
    9640:	8a000032 	bhi	9710 <staff_vm_map_kernel+0x1a8>
    9644:	e3a01001 	mov	r1, #1
    9648:	e58d1014 	str	r1, [sp, #20]
    964c:	e3a02000 	mov	r2, #0
    9650:	e58d2018 	str	r2, [sp, #24]
    9654:	e58d301c 	str	r3, [sp, #28]
    9658:	e3a03003 	mov	r3, #3
    965c:	e58d3020 	str	r3, [sp, #32]
    9660:	e5cd1024 	strb	r1, [sp, #36]	@ 0x24
    9664:	e5cd2025 	strb	r2, [sp, #37]	@ 0x25
    9668:	e28d3028 	add	r3, sp, #40	@ 0x28
    966c:	e913000f 	ldmdb	r3, {r0, r1, r2, r3}
    9670:	e88d000f 	stm	sp, {r0, r1, r2, r3}
    9674:	e59d3014 	ldr	r3, [sp, #20]
    9678:	e1a02008 	mov	r2, r8
    967c:	e1a01008 	mov	r1, r8
    9680:	e1a00007 	mov	r0, r7
    9684:	ebfffef7 	bl	9268 <staff_vm_map_sec>
    9688:	e1a01008 	mov	r1, r8
    968c:	e1a00007 	mov	r0, r7
    9690:	ebffff6c 	bl	9448 <staff_vm_lookup>
    9694:	e3500000 	cmp	r0, #0
    9698:	0a000031 	beq	9764 <staff_vm_map_kernel+0x1fc>
    969c:	e2844001 	add	r4, r4, #1
    96a0:	e5953000 	ldr	r3, [r5]
    96a4:	e1530004 	cmp	r3, r4
    96a8:	9a000034 	bls	9780 <staff_vm_map_kernel+0x218>
    96ac:	e1a03204 	lsl	r3, r4, #4
    96b0:	e2832008 	add	r2, r3, #8
    96b4:	e0852002 	add	r2, r5, r2
    96b8:	e0853003 	add	r3, r5, r3
    96bc:	e5938008 	ldr	r8, [r3, #8]
    96c0:	e5d23008 	ldrb	r3, [r2, #8]
    96c4:	e3530001 	cmp	r3, #1
    96c8:	0affffda 	beq	9638 <staff_vm_map_kernel+0xd0>
    96cc:	e3530002 	cmp	r3, #2
    96d0:	0a000016 	beq	9730 <staff_vm_map_kernel+0x1c8>
    96d4:	e3530000 	cmp	r3, #0
    96d8:	1a00001a 	bne	9748 <staff_vm_map_kernel+0x1e0>
    96dc:	e592300c 	ldr	r3, [r2, #12]
    96e0:	e3530010 	cmp	r3, #16
    96e4:	8affffcb 	bhi	9618 <staff_vm_map_kernel+0xb0>
    96e8:	e3a01001 	mov	r1, #1
    96ec:	e58d1014 	str	r1, [sp, #20]
    96f0:	e3a02000 	mov	r2, #0
    96f4:	e58d2018 	str	r2, [sp, #24]
    96f8:	e58d301c 	str	r3, [sp, #28]
    96fc:	e3a03003 	mov	r3, #3
    9700:	e58d3020 	str	r3, [sp, #32]
    9704:	e5cd1024 	strb	r1, [sp, #36]	@ 0x24
    9708:	e5cd2025 	strb	r2, [sp, #37]	@ 0x25
    970c:	eaffffd5 	b	9668 <staff_vm_map_kernel+0x100>
    9710:	e59f30bc 	ldr	r3, [pc, #188]	@ 97d4 <staff_vm_map_kernel+0x26c>
    9714:	e58d3000 	str	r3, [sp]
    9718:	e3a03093 	mov	r3, #147	@ 0x93
    971c:	e59f20b4 	ldr	r2, [pc, #180]	@ 97d8 <staff_vm_map_kernel+0x270>
    9720:	e59f10b4 	ldr	r1, [pc, #180]	@ 97dc <staff_vm_map_kernel+0x274>
    9724:	e59f00b4 	ldr	r0, [pc, #180]	@ 97e0 <staff_vm_map_kernel+0x278>
    9728:	eb000357 	bl	a48c <printk>
    972c:	eb000486 	bl	a94c <clean_reboot>
    9730:	e3a0309b 	mov	r3, #155	@ 0x9b
    9734:	e59f20a8 	ldr	r2, [pc, #168]	@ 97e4 <staff_vm_map_kernel+0x27c>
    9738:	e59f10a8 	ldr	r1, [pc, #168]	@ 97e8 <staff_vm_map_kernel+0x280>
    973c:	e59f00a8 	ldr	r0, [pc, #168]	@ 97ec <staff_vm_map_kernel+0x284>
    9740:	eb000351 	bl	a48c <printk>
    9744:	eb000480 	bl	a94c <clean_reboot>
    9748:	e58d3000 	str	r3, [sp]
    974c:	e3a0309d 	mov	r3, #157	@ 0x9d
    9750:	e59f208c 	ldr	r2, [pc, #140]	@ 97e4 <staff_vm_map_kernel+0x27c>
    9754:	e59f108c 	ldr	r1, [pc, #140]	@ 97e8 <staff_vm_map_kernel+0x280>
    9758:	e59f0090 	ldr	r0, [pc, #144]	@ 97f0 <staff_vm_map_kernel+0x288>
    975c:	eb00034a 	bl	a48c <printk>
    9760:	eb000479 	bl	a94c <clean_reboot>
    9764:	e58d8000 	str	r8, [sp]
    9768:	e3a030b4 	mov	r3, #180	@ 0xb4
    976c:	e59f2080 	ldr	r2, [pc, #128]	@ 97f4 <staff_vm_map_kernel+0x28c>
    9770:	e59f1070 	ldr	r1, [pc, #112]	@ 97e8 <staff_vm_map_kernel+0x280>
    9774:	e59f007c 	ldr	r0, [pc, #124]	@ 97f8 <staff_vm_map_kernel+0x290>
    9778:	eb000343 	bl	a48c <printk>
    977c:	eb000472 	bl	a94c <clean_reboot>
    9780:	e3a02001 	mov	r2, #1
    9784:	e59f1070 	ldr	r1, [pc, #112]	@ 97fc <staff_vm_map_kernel+0x294>
    9788:	e1a00007 	mov	r0, r7
    978c:	ebfffd08 	bl	8bb4 <vm_mmu_switch>
    9790:	e3560000 	cmp	r6, #0
    9794:	1a000002 	bne	97a4 <staff_vm_map_kernel+0x23c>
    9798:	e1a00007 	mov	r0, r7
    979c:	e28dd028 	add	sp, sp, #40	@ 0x28
    97a0:	e8bd81f0 	pop	{r4, r5, r6, r7, r8, pc}
    97a4:	e59f0054 	ldr	r0, [pc, #84]	@ 9800 <staff_vm_map_kernel+0x298>
    97a8:	eb000337 	bl	a48c <printk>
    97ac:	eb000cd6 	bl	cb0c <staff_mmu_sync_pte_mods>
    97b0:	ebfffcbf 	bl	8ab4 <vm_mmu_enable>
    97b4:	e59f0048 	ldr	r0, [pc, #72]	@ 9804 <staff_vm_map_kernel+0x29c>
    97b8:	eb000333 	bl	a48c <printk>
    97bc:	eafffff5 	b	9798 <staff_vm_map_kernel+0x230>
    97c0:	0000b598 	.word	0x0000b598
    97c4:	0000c660 	.word	0x0000c660
    97c8:	0000b58c 	.word	0x0000b58c
    97cc:	0000b4cc 	.word	0x0000b4cc
    97d0:	0000b5a0 	.word	0x0000b5a0
    97d4:	0000b690 	.word	0x0000b690
    97d8:	0000c66c 	.word	0x0000c66c
    97dc:	0000b5c0 	.word	0x0000b5c0
    97e0:	0000b654 	.word	0x0000b654
    97e4:	0000c674 	.word	0x0000c674
    97e8:	0000b9a0 	.word	0x0000b9a0
    97ec:	0000b798 	.word	0x0000b798
    97f0:	0000b7b8 	.word	0x0000b7b8
    97f4:	0000c67c 	.word	0x0000c67c
    97f8:	0000ba4c 	.word	0x0000ba4c
    97fc:	0000140e 	.word	0x0000140e
    9800:	0000ba70 	.word	0x0000ba70
    9804:	0000ba88 	.word	0x0000ba88

00009808 <_mmu_disable_set>:
    9808:	e52de004 	push	{lr}		@ (str lr, [sp, #-4]!)
    980c:	e24dd00c 	sub	sp, sp, #12
    9810:	e3100001 	tst	r0, #1
    9814:	1a000005 	bne	9830 <_mmu_disable_set+0x28>
    9818:	e6ef3070 	uxtb	r3, r0
    981c:	e3130004 	tst	r3, #4
    9820:	1a00000a 	bne	9850 <_mmu_disable_set+0x48>
    9824:	eb000d25 	bl	ccc0 <staff_mmu_disable_set_asm>
    9828:	e28dd00c 	add	sp, sp, #12
    982c:	e49df004 	pop	{pc}		@ (ldr pc, [sp], #4)
    9830:	e59f3038 	ldr	r3, [pc, #56]	@ 9870 <_mmu_disable_set+0x68>
    9834:	e58d3000 	str	r3, [sp]
    9838:	e3a030b6 	mov	r3, #182	@ 0xb6
    983c:	e59f2030 	ldr	r2, [pc, #48]	@ 9874 <_mmu_disable_set+0x6c>
    9840:	e59f1030 	ldr	r1, [pc, #48]	@ 9878 <_mmu_disable_set+0x70>
    9844:	e59f0030 	ldr	r0, [pc, #48]	@ 987c <_mmu_disable_set+0x74>
    9848:	eb00030f 	bl	a48c <printk>
    984c:	eb00043e 	bl	a94c <clean_reboot>
    9850:	e59f3028 	ldr	r3, [pc, #40]	@ 9880 <_mmu_disable_set+0x78>
    9854:	e58d3000 	str	r3, [sp]
    9858:	e3a030b7 	mov	r3, #183	@ 0xb7
    985c:	e59f2010 	ldr	r2, [pc, #16]	@ 9874 <_mmu_disable_set+0x6c>
    9860:	e59f1010 	ldr	r1, [pc, #16]	@ 9878 <_mmu_disable_set+0x70>
    9864:	e59f0010 	ldr	r0, [pc, #16]	@ 987c <_mmu_disable_set+0x74>
    9868:	eb000307 	bl	a48c <printk>
    986c:	eb000436 	bl	a94c <clean_reboot>
    9870:	0000b518 	.word	0x0000b518
    9874:	0000c690 	.word	0x0000c690
    9878:	0000b50c 	.word	0x0000b50c
    987c:	0000b4cc 	.word	0x0000b4cc
    9880:	0000ba94 	.word	0x0000ba94

00009884 <_mmu_enable_set>:
    9884:	e52de004 	push	{lr}		@ (str lr, [sp, #-4]!)
    9888:	e24dd00c 	sub	sp, sp, #12
    988c:	e3100001 	tst	r0, #1
    9890:	0a000002 	beq	98a0 <_mmu_enable_set+0x1c>
    9894:	eb000cef 	bl	cc58 <staff_mmu_enable_set_asm>
    9898:	e28dd00c 	add	sp, sp, #12
    989c:	e49df004 	pop	{pc}		@ (ldr pc, [sp], #4)
    98a0:	e59f3018 	ldr	r3, [pc, #24]	@ 98c0 <_mmu_enable_set+0x3c>
    98a4:	e58d3000 	str	r3, [sp]
    98a8:	e3a030c5 	mov	r3, #197	@ 0xc5
    98ac:	e59f2010 	ldr	r2, [pc, #16]	@ 98c4 <_mmu_enable_set+0x40>
    98b0:	e59f1010 	ldr	r1, [pc, #16]	@ 98c8 <_mmu_enable_set+0x44>
    98b4:	e59f0010 	ldr	r0, [pc, #16]	@ 98cc <_mmu_enable_set+0x48>
    98b8:	eb0002f3 	bl	a48c <printk>
    98bc:	eb000422 	bl	a94c <clean_reboot>
    98c0:	0000b528 	.word	0x0000b528
    98c4:	0000c6a4 	.word	0x0000c6a4
    98c8:	0000b50c 	.word	0x0000b50c
    98cc:	0000b4cc 	.word	0x0000b4cc
    98d0:	e92d4010 	push	{r4, lr}
    98d4:	eb000c10 	bl	c91c <cp15_ctrl_reg1_rd>
    98d8:	e2000001 	and	r0, r0, #1
    98dc:	e8bd8010 	pop	{r4, pc}

000098e0 <staff_mmu_lookup_section>:
    98e0:	e52de004 	push	{lr}		@ (str lr, [sp, #-4]!)
    98e4:	e24dd014 	sub	sp, sp, #20
    98e8:	e3c124ff 	bic	r2, r1, #-16777216	@ 0xff000000
    98ec:	e3c2260f 	bic	r2, r2, #15728640	@ 0xf00000
    98f0:	e3520000 	cmp	r2, #0
    98f4:	1a000007 	bne	9918 <staff_mmu_lookup_section+0x38>
    98f8:	e1a03000 	mov	r3, r0
    98fc:	e1a01a21 	lsr	r1, r1, #20
    9900:	e0800101 	add	r0, r0, r1, lsl #2
    9904:	e7d33101 	ldrb	r3, [r3, r1, lsl #2]
    9908:	e3130003 	tst	r3, #3
    990c:	0a00000b 	beq	9940 <staff_mmu_lookup_section+0x60>
    9910:	e28dd014 	add	sp, sp, #20
    9914:	e49df004 	pop	{pc}		@ (ldr pc, [sp], #4)
    9918:	e58d2008 	str	r2, [sp, #8]
    991c:	e3a03014 	mov	r3, #20
    9920:	e58d3004 	str	r3, [sp, #4]
    9924:	e58d1000 	str	r1, [sp]
    9928:	e3a030a0 	mov	r3, #160	@ 0xa0
    992c:	e59f202c 	ldr	r2, [pc, #44]	@ 9960 <staff_mmu_lookup_section+0x80>
    9930:	e59f102c 	ldr	r1, [pc, #44]	@ 9964 <staff_mmu_lookup_section+0x84>
    9934:	e59f002c 	ldr	r0, [pc, #44]	@ 9968 <staff_mmu_lookup_section+0x88>
    9938:	eb0002d3 	bl	a48c <printk>
    993c:	eb000402 	bl	a94c <clean_reboot>
    9940:	e59f3024 	ldr	r3, [pc, #36]	@ 996c <staff_mmu_lookup_section+0x8c>
    9944:	e58d3000 	str	r3, [sp]
    9948:	e3a03025 	mov	r3, #37	@ 0x25
    994c:	e59f201c 	ldr	r2, [pc, #28]	@ 9970 <staff_mmu_lookup_section+0x90>
    9950:	e59f101c 	ldr	r1, [pc, #28]	@ 9974 <staff_mmu_lookup_section+0x94>
    9954:	e59f001c 	ldr	r0, [pc, #28]	@ 9978 <staff_mmu_lookup_section+0x98>
    9958:	eb0002cb 	bl	a48c <printk>
    995c:	eb0003fa 	bl	a94c <clean_reboot>
    9960:	0000c6b4 	.word	0x0000c6b4
    9964:	0000b9b0 	.word	0x0000b9b0
    9968:	0000baa8 	.word	0x0000baa8
    996c:	0000bb20 	.word	0x0000bb20
    9970:	0000c6c0 	.word	0x0000c6c0
    9974:	0000b50c 	.word	0x0000b50c
    9978:	0000bae4 	.word	0x0000bae4

0000997c <staff_mmu_mprotect>:
    997c:	e92d41f0 	push	{r4, r5, r6, r7, r8, lr}
    9980:	e24dd008 	sub	sp, sp, #8
    9984:	e3530003 	cmp	r3, #3
    9988:	8a000006 	bhi	99a8 <staff_mmu_mprotect+0x2c>
    998c:	e1a08000 	mov	r8, r0
    9990:	e1a06002 	mov	r6, r2
    9994:	e1a07003 	mov	r7, r3
    9998:	e1a05aa1 	lsr	r5, r1, #21
    999c:	e1a05a85 	lsl	r5, r5, #21
    99a0:	e3a04000 	mov	r4, #0
    99a4:	ea000010 	b	99ec <staff_mmu_mprotect+0x70>
    99a8:	e59f3050 	ldr	r3, [pc, #80]	@ 9a00 <staff_mmu_mprotect+0x84>
    99ac:	e58d3000 	str	r3, [sp]
    99b0:	e3a0302c 	mov	r3, #44	@ 0x2c
    99b4:	e59f2048 	ldr	r2, [pc, #72]	@ 9a04 <staff_mmu_mprotect+0x88>
    99b8:	e59f1048 	ldr	r1, [pc, #72]	@ 9a08 <staff_mmu_mprotect+0x8c>
    99bc:	e59f0048 	ldr	r0, [pc, #72]	@ 9a0c <staff_mmu_mprotect+0x90>
    99c0:	eb0002b1 	bl	a48c <printk>
    99c4:	eb0003e0 	bl	a94c <clean_reboot>
    99c8:	e1a01005 	mov	r1, r5
    99cc:	e1a00008 	mov	r0, r8
    99d0:	ebffffc2 	bl	98e0 <staff_mmu_lookup_section>
    99d4:	e5d0e001 	ldrb	lr, [r0, #1]
    99d8:	e207c003 	and	ip, r7, #3
    99dc:	e3cee00c 	bic	lr, lr, #12
    99e0:	e18ec10c 	orr	ip, lr, ip, lsl #2
    99e4:	e5c0c001 	strb	ip, [r0, #1]
    99e8:	e2844001 	add	r4, r4, #1
    99ec:	e1540006 	cmp	r4, r6
    99f0:	3afffff4 	bcc	99c8 <staff_mmu_mprotect+0x4c>
    99f4:	eb000c44 	bl	cb0c <staff_mmu_sync_pte_mods>
    99f8:	e28dd008 	add	sp, sp, #8
    99fc:	e8bd81f0 	pop	{r4, r5, r6, r7, r8, pc}
    9a00:	0000b5b0 	.word	0x0000b5b0
    9a04:	0000c6dc 	.word	0x0000c6dc
    9a08:	0000b50c 	.word	0x0000b50c
    9a0c:	0000bb2c 	.word	0x0000bb2c

00009a10 <staff_mmu_init>:
    9a10:	e52de004 	push	{lr}		@ (str lr, [sp, #-4]!)
    9a14:	e24dd00c 	sub	sp, sp, #12
    9a18:	eb000c75 	bl	cbf4 <staff_mmu_reset>
    9a1c:	eb000bbe 	bl	c91c <cp15_ctrl_reg1_rd>
    9a20:	e3800502 	orr	r0, r0, #8388608	@ 0x800000
    9a24:	eb000c31 	bl	caf0 <cp15_ctrl_reg1_wr>
    9a28:	eb000bbb 	bl	c91c <cp15_ctrl_reg1_rd>
    9a2c:	e3100502 	tst	r0, #8388608	@ 0x800000
    9a30:	0a000003 	beq	9a44 <staff_mmu_init+0x34>
    9a34:	e3100001 	tst	r0, #1
    9a38:	1a000009 	bne	9a64 <staff_mmu_init+0x54>
    9a3c:	e28dd00c 	add	sp, sp, #12
    9a40:	e49df004 	pop	{pc}		@ (ldr pc, [sp], #4)
    9a44:	e59f3038 	ldr	r3, [pc, #56]	@ 9a84 <staff_mmu_init+0x74>
    9a48:	e58d3000 	str	r3, [sp]
    9a4c:	e3a030aa 	mov	r3, #170	@ 0xaa
    9a50:	e59f2030 	ldr	r2, [pc, #48]	@ 9a88 <staff_mmu_init+0x78>
    9a54:	e59f1030 	ldr	r1, [pc, #48]	@ 9a8c <staff_mmu_init+0x7c>
    9a58:	e59f0030 	ldr	r0, [pc, #48]	@ 9a90 <staff_mmu_init+0x80>
    9a5c:	eb00028a 	bl	a48c <printk>
    9a60:	eb0003b9 	bl	a94c <clean_reboot>
    9a64:	e59f3028 	ldr	r3, [pc, #40]	@ 9a94 <staff_mmu_init+0x84>
    9a68:	e58d3000 	str	r3, [sp]
    9a6c:	e3a030ab 	mov	r3, #171	@ 0xab
    9a70:	e59f2010 	ldr	r2, [pc, #16]	@ 9a88 <staff_mmu_init+0x78>
    9a74:	e59f1010 	ldr	r1, [pc, #16]	@ 9a8c <staff_mmu_init+0x7c>
    9a78:	e59f0010 	ldr	r0, [pc, #16]	@ 9a90 <staff_mmu_init+0x80>
    9a7c:	eb000282 	bl	a48c <printk>
    9a80:	eb0003b1 	bl	a94c <clean_reboot>
    9a84:	0000bb6c 	.word	0x0000bb6c
    9a88:	0000c6f0 	.word	0x0000c6f0
    9a8c:	0000b50c 	.word	0x0000b50c
    9a90:	0000b4cc 	.word	0x0000b4cc
    9a94:	0000bb78 	.word	0x0000bb78

00009a98 <staff_mmu_disable>:
    9a98:	e52de004 	push	{lr}		@ (str lr, [sp, #-4]!)
    9a9c:	e24dd00c 	sub	sp, sp, #12
    9aa0:	eb000b9d 	bl	c91c <cp15_ctrl_reg1_rd>
    9aa4:	e3100001 	tst	r0, #1
    9aa8:	0a000003 	beq	9abc <staff_mmu_disable+0x24>
    9aac:	e3c00005 	bic	r0, r0, #5
    9ab0:	ebffff54 	bl	9808 <_mmu_disable_set>
    9ab4:	e28dd00c 	add	sp, sp, #12
    9ab8:	e49df004 	pop	{pc}		@ (ldr pc, [sp], #4)
    9abc:	e59f3018 	ldr	r3, [pc, #24]	@ 9adc <staff_mmu_disable+0x44>
    9ac0:	e58d3000 	str	r3, [sp]
    9ac4:	e3a030bd 	mov	r3, #189	@ 0xbd
    9ac8:	e59f2010 	ldr	r2, [pc, #16]	@ 9ae0 <staff_mmu_disable+0x48>
    9acc:	e59f1010 	ldr	r1, [pc, #16]	@ 9ae4 <staff_mmu_disable+0x4c>
    9ad0:	e59f0010 	ldr	r0, [pc, #16]	@ 9ae8 <staff_mmu_disable+0x50>
    9ad4:	eb00026c 	bl	a48c <printk>
    9ad8:	eb00039b 	bl	a94c <clean_reboot>
    9adc:	0000b528 	.word	0x0000b528
    9ae0:	0000c700 	.word	0x0000c700
    9ae4:	0000b50c 	.word	0x0000b50c
    9ae8:	0000b4cc 	.word	0x0000b4cc

00009aec <staff_mmu_enable>:
    9aec:	e52de004 	push	{lr}		@ (str lr, [sp, #-4]!)
    9af0:	e24dd00c 	sub	sp, sp, #12
    9af4:	eb000b88 	bl	c91c <cp15_ctrl_reg1_rd>
    9af8:	e3100001 	tst	r0, #1
    9afc:	1a000003 	bne	9b10 <staff_mmu_enable+0x24>
    9b00:	e3800001 	orr	r0, r0, #1
    9b04:	ebffff5e 	bl	9884 <_mmu_enable_set>
    9b08:	e28dd00c 	add	sp, sp, #12
    9b0c:	e49df004 	pop	{pc}		@ (ldr pc, [sp], #4)
    9b10:	e59f3018 	ldr	r3, [pc, #24]	@ 9b30 <staff_mmu_enable+0x44>
    9b14:	e58d3000 	str	r3, [sp]
    9b18:	e3a030ca 	mov	r3, #202	@ 0xca
    9b1c:	e59f2010 	ldr	r2, [pc, #16]	@ 9b34 <staff_mmu_enable+0x48>
    9b20:	e59f1010 	ldr	r1, [pc, #16]	@ 9b38 <staff_mmu_enable+0x4c>
    9b24:	e59f0010 	ldr	r0, [pc, #16]	@ 9b3c <staff_mmu_enable+0x50>
    9b28:	eb000257 	bl	a48c <printk>
    9b2c:	eb000386 	bl	a94c <clean_reboot>
    9b30:	0000b518 	.word	0x0000b518
    9b34:	0000c714 	.word	0x0000c714
    9b38:	0000b50c 	.word	0x0000b50c
    9b3c:	0000b4cc 	.word	0x0000b4cc

00009b40 <staff_domain_access_ctrl_get>:
    9b40:	ee130f10 	mrc	15, 0, r0, cr3, cr0, {0}
    9b44:	e12fff1e 	bx	lr

00009b48 <staff_domain_access_ctrl_set>:
    9b48:	e92d4010 	push	{r4, lr}
    9b4c:	eb000c73 	bl	cd20 <staff_cp15_domain_ctrl_wr>
    9b50:	e8bd8010 	pop	{r4, pc}

00009b54 <staff_set_procid_ttbr0>:
    9b54:	e52de004 	push	{lr}		@ (str lr, [sp, #-4]!)
    9b58:	e24dd00c 	sub	sp, sp, #12
    9b5c:	e1a03001 	mov	r3, r1
    9b60:	e1a01002 	mov	r1, r2
    9b64:	e1b02c20 	lsrs	r2, r0, #24
    9b68:	1a000008 	bne	9b90 <staff_set_procid_ttbr0+0x3c>
    9b6c:	e3500040 	cmp	r0, #64	@ 0x40
    9b70:	9a00000e 	bls	9bb0 <staff_set_procid_ttbr0+0x5c>
    9b74:	e2432001 	sub	r2, r3, #1
    9b78:	e352003e 	cmp	r2, #62	@ 0x3e
    9b7c:	8a000013 	bhi	9bd0 <staff_set_procid_ttbr0+0x7c>
    9b80:	e1830400 	orr	r0, r3, r0, lsl #8
    9b84:	eb000c0e 	bl	cbc4 <staff_cp15_set_procid_ttbr0>
    9b88:	e28dd00c 	add	sp, sp, #12
    9b8c:	e49df004 	pop	{pc}		@ (ldr pc, [sp], #4)
    9b90:	e59f3058 	ldr	r3, [pc, #88]	@ 9bf0 <staff_set_procid_ttbr0+0x9c>
    9b94:	e58d3000 	str	r3, [sp]
    9b98:	e3a030db 	mov	r3, #219	@ 0xdb
    9b9c:	e59f2050 	ldr	r2, [pc, #80]	@ 9bf4 <staff_set_procid_ttbr0+0xa0>
    9ba0:	e59f1050 	ldr	r1, [pc, #80]	@ 9bf8 <staff_set_procid_ttbr0+0xa4>
    9ba4:	e59f0050 	ldr	r0, [pc, #80]	@ 9bfc <staff_set_procid_ttbr0+0xa8>
    9ba8:	eb000237 	bl	a48c <printk>
    9bac:	eb000366 	bl	a94c <clean_reboot>
    9bb0:	e59f3048 	ldr	r3, [pc, #72]	@ 9c00 <staff_set_procid_ttbr0+0xac>
    9bb4:	e58d3000 	str	r3, [sp]
    9bb8:	e3a030dc 	mov	r3, #220	@ 0xdc
    9bbc:	e59f2030 	ldr	r2, [pc, #48]	@ 9bf4 <staff_set_procid_ttbr0+0xa0>
    9bc0:	e59f1030 	ldr	r1, [pc, #48]	@ 9bf8 <staff_set_procid_ttbr0+0xa4>
    9bc4:	e59f0030 	ldr	r0, [pc, #48]	@ 9bfc <staff_set_procid_ttbr0+0xa8>
    9bc8:	eb00022f 	bl	a48c <printk>
    9bcc:	eb00035e 	bl	a94c <clean_reboot>
    9bd0:	e59f302c 	ldr	r3, [pc, #44]	@ 9c04 <staff_set_procid_ttbr0+0xb0>
    9bd4:	e58d3000 	str	r3, [sp]
    9bd8:	e3a030dd 	mov	r3, #221	@ 0xdd
    9bdc:	e59f2010 	ldr	r2, [pc, #16]	@ 9bf4 <staff_set_procid_ttbr0+0xa0>
    9be0:	e59f1010 	ldr	r1, [pc, #16]	@ 9bf8 <staff_set_procid_ttbr0+0xa4>
    9be4:	e59f0010 	ldr	r0, [pc, #16]	@ 9bfc <staff_set_procid_ttbr0+0xa8>
    9be8:	eb000227 	bl	a48c <printk>
    9bec:	eb000356 	bl	a94c <clean_reboot>
    9bf0:	0000b538 	.word	0x0000b538
    9bf4:	0000c728 	.word	0x0000c728
    9bf8:	0000b50c 	.word	0x0000b50c
    9bfc:	0000b4cc 	.word	0x0000b4cc
    9c00:	0000b54c 	.word	0x0000b54c
    9c04:	0000b558 	.word	0x0000b558

00009c08 <bits_mask>:
    9c08:	e3500020 	cmp	r0, #32
    9c0c:	0a00000f 	beq	9c50 <bits_mask+0x48>
    9c10:	e350001f 	cmp	r0, #31
    9c14:	8a000003 	bhi	9c28 <bits_mask+0x20>
    9c18:	e3a03001 	mov	r3, #1
    9c1c:	e1a00013 	lsl	r0, r3, r0
    9c20:	e2400001 	sub	r0, r0, #1
    9c24:	e12fff1e 	bx	lr
    9c28:	e52de004 	push	{lr}		@ (str lr, [sp, #-4]!)
    9c2c:	e24dd00c 	sub	sp, sp, #12
    9c30:	e59f3020 	ldr	r3, [pc, #32]	@ 9c58 <bits_mask+0x50>
    9c34:	e58d3000 	str	r3, [sp]
    9c38:	e3a03033 	mov	r3, #51	@ 0x33
    9c3c:	e59f2018 	ldr	r2, [pc, #24]	@ 9c5c <bits_mask+0x54>
    9c40:	e59f1018 	ldr	r1, [pc, #24]	@ 9c60 <bits_mask+0x58>
    9c44:	e59f0018 	ldr	r0, [pc, #24]	@ 9c64 <bits_mask+0x5c>
    9c48:	eb00020f 	bl	a48c <printk>
    9c4c:	eb00033e 	bl	a94c <clean_reboot>
    9c50:	e3e00000 	mvn	r0, #0
    9c54:	e12fff1e 	bx	lr
    9c58:	0000bbc4 	.word	0x0000bbc4
    9c5c:	0000c740 	.word	0x0000c740
    9c60:	0000bb88 	.word	0x0000bb88
    9c64:	0000b4cc 	.word	0x0000b4cc

00009c68 <mode_get>:
    9c68:	e92d4010 	push	{r4, lr}
    9c6c:	e24dd008 	sub	sp, sp, #8
    9c70:	e1a04000 	mov	r4, r0
    9c74:	e3a00005 	mov	r0, #5
    9c78:	ebffffe2 	bl	9c08 <bits_mask>
    9c7c:	e0000004 	and	r0, r0, r4
    9c80:	e3500012 	cmp	r0, #18
    9c84:	13500010 	cmpne	r0, #16
    9c88:	0a000005 	beq	9ca4 <mode_get+0x3c>
    9c8c:	e3500017 	cmp	r0, #23
    9c90:	13500013 	cmpne	r0, #19
    9c94:	0a000002 	beq	9ca4 <mode_get+0x3c>
    9c98:	e350001f 	cmp	r0, #31
    9c9c:	1350001b 	cmpne	r0, #27
    9ca0:	1a000001 	bne	9cac <mode_get+0x44>
    9ca4:	e28dd008 	add	sp, sp, #8
    9ca8:	e8bd8010 	pop	{r4, pc}
    9cac:	e58d0004 	str	r0, [sp, #4]
    9cb0:	e58d0000 	str	r0, [sp]
    9cb4:	e3a03013 	mov	r3, #19
    9cb8:	e59f200c 	ldr	r2, [pc, #12]	@ 9ccc <mode_get+0x64>
    9cbc:	e59f100c 	ldr	r1, [pc, #12]	@ 9cd0 <mode_get+0x68>
    9cc0:	e59f000c 	ldr	r0, [pc, #12]	@ 9cd4 <mode_get+0x6c>
    9cc4:	eb0001f0 	bl	a48c <printk>
    9cc8:	eb00031f 	bl	a94c <clean_reboot>
    9ccc:	0000c74c 	.word	0x0000c74c
    9cd0:	0000bbdc 	.word	0x0000bbdc
    9cd4:	0000bc18 	.word	0x0000bc18

00009cd8 <fixup_regs>:
    9cd8:	e92d4070 	push	{r4, r5, r6, lr}
    9cdc:	e1a05000 	mov	r5, r0
    9ce0:	e1a04001 	mov	r4, r1
    9ce4:	e1a00001 	mov	r0, r1
    9ce8:	ebffffde 	bl	9c68 <mode_get>
    9cec:	e3500010 	cmp	r0, #16
    9cf0:	08bd8070 	popeq	{r4, r5, r6, pc}
    9cf4:	e2852038 	add	r2, r5, #56	@ 0x38
    9cf8:	e2851034 	add	r1, r5, #52	@ 0x34
    9cfc:	e1a00004 	mov	r0, r4
    9d00:	eb000ce1 	bl	d08c <priv_get_sp_lr_asm>
    9d04:	e8bd8070 	pop	{r4, r5, r6, pc}

00009d08 <switchto>:
    9d08:	e92d4010 	push	{r4, lr}
    9d0c:	e1a04000 	mov	r4, r0
    9d10:	e5900040 	ldr	r0, [r0, #64]	@ 0x40
    9d14:	ebffffd3 	bl	9c68 <mode_get>
    9d18:	e3500010 	cmp	r0, #16
    9d1c:	0a000001 	beq	9d28 <switchto+0x20>
    9d20:	e1a00004 	mov	r0, r4
    9d24:	eb000cc5 	bl	d040 <switchto_priv_asm>
    9d28:	e1a00004 	mov	r0, r4
    9d2c:	eb000cb1 	bl	cff8 <switchto_user_asm>

00009d30 <prefetch_abort_full_except>:
    9d30:	e52de004 	push	{lr}		@ (str lr, [sp, #-4]!)
    9d34:	e24dd00c 	sub	sp, sp, #12
    9d38:	e5903040 	ldr	r3, [r0, #64]	@ 0x40
    9d3c:	e1530001 	cmp	r3, r1
    9d40:	1a00000e 	bne	9d80 <prefetch_abort_full_except+0x50>
    9d44:	e1a04000 	mov	r4, r0
    9d48:	e590303c 	ldr	r3, [r0, #60]	@ 0x3c
    9d4c:	e1530002 	cmp	r3, r2
    9d50:	1a000012 	bne	9da0 <prefetch_abort_full_except+0x70>
    9d54:	e59f3080 	ldr	r3, [pc, #128]	@ 9ddc <prefetch_abort_full_except+0xac>
    9d58:	e5933000 	ldr	r3, [r3]
    9d5c:	e3530000 	cmp	r3, #0
    9d60:	0a000016 	beq	9dc0 <prefetch_abort_full_except+0x90>
    9d64:	ebffffdb 	bl	9cd8 <fixup_regs>
    9d68:	e59f306c 	ldr	r3, [pc, #108]	@ 9ddc <prefetch_abort_full_except+0xac>
    9d6c:	e5933000 	ldr	r3, [r3]
    9d70:	e1a00004 	mov	r0, r4
    9d74:	e12fff33 	blx	r3
    9d78:	e1a00004 	mov	r0, r4
    9d7c:	ebffffe1 	bl	9d08 <switchto>
    9d80:	e59f3058 	ldr	r3, [pc, #88]	@ 9de0 <prefetch_abort_full_except+0xb0>
    9d84:	e58d3000 	str	r3, [sp]
    9d88:	e3a03031 	mov	r3, #49	@ 0x31
    9d8c:	e59f2050 	ldr	r2, [pc, #80]	@ 9de4 <prefetch_abort_full_except+0xb4>
    9d90:	e59f1050 	ldr	r1, [pc, #80]	@ 9de8 <prefetch_abort_full_except+0xb8>
    9d94:	e59f0050 	ldr	r0, [pc, #80]	@ 9dec <prefetch_abort_full_except+0xbc>
    9d98:	eb0001bb 	bl	a48c <printk>
    9d9c:	eb0002ea 	bl	a94c <clean_reboot>
    9da0:	e59f3048 	ldr	r3, [pc, #72]	@ 9df0 <prefetch_abort_full_except+0xc0>
    9da4:	e58d3000 	str	r3, [sp]
    9da8:	e3a03032 	mov	r3, #50	@ 0x32
    9dac:	e59f2030 	ldr	r2, [pc, #48]	@ 9de4 <prefetch_abort_full_except+0xb4>
    9db0:	e59f1030 	ldr	r1, [pc, #48]	@ 9de8 <prefetch_abort_full_except+0xb8>
    9db4:	e59f0030 	ldr	r0, [pc, #48]	@ 9dec <prefetch_abort_full_except+0xbc>
    9db8:	eb0001b3 	bl	a48c <printk>
    9dbc:	eb0002e2 	bl	a94c <clean_reboot>
    9dc0:	e58d2000 	str	r2, [sp]
    9dc4:	e3a03035 	mov	r3, #53	@ 0x35
    9dc8:	e59f2014 	ldr	r2, [pc, #20]	@ 9de4 <prefetch_abort_full_except+0xb4>
    9dcc:	e59f1014 	ldr	r1, [pc, #20]	@ 9de8 <prefetch_abort_full_except+0xb8>
    9dd0:	e59f001c 	ldr	r0, [pc, #28]	@ 9df4 <prefetch_abort_full_except+0xc4>
    9dd4:	eb0001ac 	bl	a48c <printk>
    9dd8:	eb0002db 	bl	a94c <clean_reboot>
    9ddc:	0000d290 	.word	0x0000d290
    9de0:	0000bc58 	.word	0x0000bc58
    9de4:	0000c758 	.word	0x0000c758
    9de8:	0000bc44 	.word	0x0000bc44
    9dec:	0000b4cc 	.word	0x0000b4cc
    9df0:	0000bc74 	.word	0x0000bc74
    9df4:	0000bc8c 	.word	0x0000bc8c

00009df8 <data_abort_full_except>:
    9df8:	e52de004 	push	{lr}		@ (str lr, [sp, #-4]!)
    9dfc:	e24dd00c 	sub	sp, sp, #12
    9e00:	e5903040 	ldr	r3, [r0, #64]	@ 0x40
    9e04:	e1530001 	cmp	r3, r1
    9e08:	1a00000e 	bne	9e48 <data_abort_full_except+0x50>
    9e0c:	e1a04000 	mov	r4, r0
    9e10:	e590303c 	ldr	r3, [r0, #60]	@ 0x3c
    9e14:	e1530002 	cmp	r3, r2
    9e18:	1a000012 	bne	9e68 <data_abort_full_except+0x70>
    9e1c:	e59f3080 	ldr	r3, [pc, #128]	@ 9ea4 <data_abort_full_except+0xac>
    9e20:	e5933004 	ldr	r3, [r3, #4]
    9e24:	e3530000 	cmp	r3, #0
    9e28:	0a000016 	beq	9e88 <data_abort_full_except+0x90>
    9e2c:	ebffffa9 	bl	9cd8 <fixup_regs>
    9e30:	e59f306c 	ldr	r3, [pc, #108]	@ 9ea4 <data_abort_full_except+0xac>
    9e34:	e5933004 	ldr	r3, [r3, #4]
    9e38:	e1a00004 	mov	r0, r4
    9e3c:	e12fff33 	blx	r3
    9e40:	e1a00004 	mov	r0, r4
    9e44:	ebffffaf 	bl	9d08 <switchto>
    9e48:	e59f3058 	ldr	r3, [pc, #88]	@ 9ea8 <data_abort_full_except+0xb0>
    9e4c:	e58d3000 	str	r3, [sp]
    9e50:	e3a0303e 	mov	r3, #62	@ 0x3e
    9e54:	e59f2050 	ldr	r2, [pc, #80]	@ 9eac <data_abort_full_except+0xb4>
    9e58:	e59f1050 	ldr	r1, [pc, #80]	@ 9eb0 <data_abort_full_except+0xb8>
    9e5c:	e59f0050 	ldr	r0, [pc, #80]	@ 9eb4 <data_abort_full_except+0xbc>
    9e60:	eb000189 	bl	a48c <printk>
    9e64:	eb0002b8 	bl	a94c <clean_reboot>
    9e68:	e59f3048 	ldr	r3, [pc, #72]	@ 9eb8 <data_abort_full_except+0xc0>
    9e6c:	e58d3000 	str	r3, [sp]
    9e70:	e3a0303f 	mov	r3, #63	@ 0x3f
    9e74:	e59f2030 	ldr	r2, [pc, #48]	@ 9eac <data_abort_full_except+0xb4>
    9e78:	e59f1030 	ldr	r1, [pc, #48]	@ 9eb0 <data_abort_full_except+0xb8>
    9e7c:	e59f0030 	ldr	r0, [pc, #48]	@ 9eb4 <data_abort_full_except+0xbc>
    9e80:	eb000181 	bl	a48c <printk>
    9e84:	eb0002b0 	bl	a94c <clean_reboot>
    9e88:	e58d2000 	str	r2, [sp]
    9e8c:	e3a03042 	mov	r3, #66	@ 0x42
    9e90:	e59f2014 	ldr	r2, [pc, #20]	@ 9eac <data_abort_full_except+0xb4>
    9e94:	e59f1014 	ldr	r1, [pc, #20]	@ 9eb0 <data_abort_full_except+0xb8>
    9e98:	e59f001c 	ldr	r0, [pc, #28]	@ 9ebc <data_abort_full_except+0xc4>
    9e9c:	eb00017a 	bl	a48c <printk>
    9ea0:	eb0002a9 	bl	a94c <clean_reboot>
    9ea4:	0000d290 	.word	0x0000d290
    9ea8:	0000bc58 	.word	0x0000bc58
    9eac:	0000c774 	.word	0x0000c774
    9eb0:	0000bc44 	.word	0x0000bc44
    9eb4:	0000b4cc 	.word	0x0000b4cc
    9eb8:	0000bc74 	.word	0x0000bc74
    9ebc:	0000bcc4 	.word	0x0000bcc4

00009ec0 <syscall_full_except>:
    9ec0:	e52de004 	push	{lr}		@ (str lr, [sp, #-4]!)
    9ec4:	e24dd014 	sub	sp, sp, #20
    9ec8:	e5903040 	ldr	r3, [r0, #64]	@ 0x40
    9ecc:	e1530001 	cmp	r3, r1
    9ed0:	1a00000c 	bne	9f08 <syscall_full_except+0x48>
    9ed4:	e1a04000 	mov	r4, r0
    9ed8:	e1a05002 	mov	r5, r2
    9edc:	e590303c 	ldr	r3, [r0, #60]	@ 0x3c
    9ee0:	e1530002 	cmp	r3, r2
    9ee4:	0a00000f 	beq	9f28 <syscall_full_except+0x68>
    9ee8:	e59f30d0 	ldr	r3, [pc, #208]	@ 9fc0 <syscall_full_except+0x100>
    9eec:	e58d3000 	str	r3, [sp]
    9ef0:	e3a0304d 	mov	r3, #77	@ 0x4d
    9ef4:	e59f20c8 	ldr	r2, [pc, #200]	@ 9fc4 <syscall_full_except+0x104>
    9ef8:	e59f10c8 	ldr	r1, [pc, #200]	@ 9fc8 <syscall_full_except+0x108>
    9efc:	e59f00c8 	ldr	r0, [pc, #200]	@ 9fcc <syscall_full_except+0x10c>
    9f00:	eb000161 	bl	a48c <printk>
    9f04:	eb000290 	bl	a94c <clean_reboot>
    9f08:	e59f30c0 	ldr	r3, [pc, #192]	@ 9fd0 <syscall_full_except+0x110>
    9f0c:	e58d3000 	str	r3, [sp]
    9f10:	e3a0304c 	mov	r3, #76	@ 0x4c
    9f14:	e59f20a8 	ldr	r2, [pc, #168]	@ 9fc4 <syscall_full_except+0x104>
    9f18:	e59f10a8 	ldr	r1, [pc, #168]	@ 9fc8 <syscall_full_except+0x108>
    9f1c:	e59f00a8 	ldr	r0, [pc, #168]	@ 9fcc <syscall_full_except+0x10c>
    9f20:	eb000159 	bl	a48c <printk>
    9f24:	eb000288 	bl	a94c <clean_reboot>
    9f28:	e1a00001 	mov	r0, r1
    9f2c:	ebffff4d 	bl	9c68 <mode_get>
    9f30:	e3500010 	cmp	r0, #16
    9f34:	1a00000c 	bne	9f6c <syscall_full_except+0xac>
    9f38:	e28d200c 	add	r2, sp, #12
    9f3c:	e59f3090 	ldr	r3, [pc, #144]	@ 9fd4 <syscall_full_except+0x114>
    9f40:	e1520003 	cmp	r2, r3
    9f44:	9a00000e 	bls	9f84 <syscall_full_except+0xc4>
    9f48:	e59f3088 	ldr	r3, [pc, #136]	@ 9fd8 <syscall_full_except+0x118>
    9f4c:	e5933008 	ldr	r3, [r3, #8]
    9f50:	e3530000 	cmp	r3, #0
    9f54:	0a000012 	beq	9fa4 <syscall_full_except+0xe4>
    9f58:	e1a00004 	mov	r0, r4
    9f5c:	e12fff33 	blx	r3
    9f60:	e5840000 	str	r0, [r4]
    9f64:	e1a00004 	mov	r0, r4
    9f68:	ebffff66 	bl	9d08 <switchto>
    9f6c:	e3a03050 	mov	r3, #80	@ 0x50
    9f70:	e59f204c 	ldr	r2, [pc, #76]	@ 9fc4 <syscall_full_except+0x104>
    9f74:	e59f104c 	ldr	r1, [pc, #76]	@ 9fc8 <syscall_full_except+0x108>
    9f78:	e59f005c 	ldr	r0, [pc, #92]	@ 9fdc <syscall_full_except+0x11c>
    9f7c:	eb000142 	bl	a48c <printk>
    9f80:	eb000271 	bl	a94c <clean_reboot>
    9f84:	e59f3054 	ldr	r3, [pc, #84]	@ 9fe0 <syscall_full_except+0x120>
    9f88:	e58d3000 	str	r3, [sp]
    9f8c:	e3a03055 	mov	r3, #85	@ 0x55
    9f90:	e59f202c 	ldr	r2, [pc, #44]	@ 9fc4 <syscall_full_except+0x104>
    9f94:	e59f102c 	ldr	r1, [pc, #44]	@ 9fc8 <syscall_full_except+0x108>
    9f98:	e59f0044 	ldr	r0, [pc, #68]	@ 9fe4 <syscall_full_except+0x124>
    9f9c:	eb00013a 	bl	a48c <printk>
    9fa0:	eb000269 	bl	a94c <clean_reboot>
    9fa4:	e58d5000 	str	r5, [sp]
    9fa8:	e3a0305a 	mov	r3, #90	@ 0x5a
    9fac:	e59f2010 	ldr	r2, [pc, #16]	@ 9fc4 <syscall_full_except+0x104>
    9fb0:	e59f1010 	ldr	r1, [pc, #16]	@ 9fc8 <syscall_full_except+0x108>
    9fb4:	e59f002c 	ldr	r0, [pc, #44]	@ 9fe8 <syscall_full_except+0x128>
    9fb8:	eb000133 	bl	a48c <printk>
    9fbc:	eb000262 	bl	a94c <clean_reboot>
    9fc0:	0000bc74 	.word	0x0000bc74
    9fc4:	0000c78c 	.word	0x0000c78c
    9fc8:	0000bc44 	.word	0x0000bc44
    9fcc:	0000b4cc 	.word	0x0000b4cc
    9fd0:	0000bc58 	.word	0x0000bc58
    9fd4:	000186a0 	.word	0x000186a0
    9fd8:	0000d290 	.word	0x0000d290
    9fdc:	0000bcf8 	.word	0x0000bcf8
    9fe0:	0000bd78 	.word	0x0000bd78
    9fe4:	0000bd34 	.word	0x0000bd34
    9fe8:	0000bd90 	.word	0x0000bd90

00009fec <full_except_set_prefetch>:
    9fec:	e59f300c 	ldr	r3, [pc, #12]	@ a000 <full_except_set_prefetch+0x14>
    9ff0:	e5932000 	ldr	r2, [r3]
    9ff4:	e5830000 	str	r0, [r3]
    9ff8:	e1a00002 	mov	r0, r2
    9ffc:	e12fff1e 	bx	lr
    a000:	0000d290 	.word	0x0000d290

0000a004 <full_except_set_data_abort>:
    a004:	e59f300c 	ldr	r3, [pc, #12]	@ a018 <full_except_set_data_abort+0x14>
    a008:	e5932004 	ldr	r2, [r3, #4]
    a00c:	e5830004 	str	r0, [r3, #4]
    a010:	e1a00002 	mov	r0, r2
    a014:	e12fff1e 	bx	lr
    a018:	0000d290 	.word	0x0000d290

0000a01c <full_except_set_syscall>:
    a01c:	e59f300c 	ldr	r3, [pc, #12]	@ a030 <full_except_set_syscall+0x14>
    a020:	e5932008 	ldr	r2, [r3, #8]
    a024:	e5830008 	str	r0, [r3, #8]
    a028:	e1a00002 	mov	r0, r2
    a02c:	e12fff1e 	bx	lr
    a030:	0000d290 	.word	0x0000d290

0000a034 <full_except_install>:
    a034:	e52de004 	push	{lr}		@ (str lr, [sp, #-4]!)
    a038:	e24dd00c 	sub	sp, sp, #12
    a03c:	e3500000 	cmp	r0, #0
    a040:	1a000007 	bne	a064 <full_except_install+0x30>
    a044:	ee1c3f10 	mrc	15, 0, r3, cr12, cr0, {0}
    a048:	e3530000 	cmp	r3, #0
    a04c:	0a000030 	beq	a114 <full_except_install+0xe0>
    a050:	e59f217c 	ldr	r2, [pc, #380]	@ a1d4 <full_except_install+0x1a0>
    a054:	e1530002 	cmp	r3, r2
    a058:	1a000056 	bne	a1b8 <full_except_install+0x184>
    a05c:	e28dd00c 	add	sp, sp, #12
    a060:	e49df004 	pop	{pc}		@ (ldr pc, [sp], #4)
    a064:	e59f3168 	ldr	r3, [pc, #360]	@ a1d4 <full_except_install+0x1a0>
    a068:	e313001f 	tst	r3, #31
    a06c:	1a000017 	bne	a0d0 <full_except_install+0x9c>
    a070:	e3a03001 	mov	r3, #1
    a074:	e3530000 	cmp	r3, #0
    a078:	0a000016 	beq	a0d8 <full_except_install+0xa4>
    a07c:	ee1c3f10 	mrc	15, 0, r3, cr12, cr0, {0}
    a080:	e59f214c 	ldr	r2, [pc, #332]	@ a1d4 <full_except_install+0x1a0>
    a084:	e1530002 	cmp	r3, r2
    a088:	0afffff3 	beq	a05c <full_except_install+0x28>
    a08c:	e3530000 	cmp	r3, #0
    a090:	1a000018 	bne	a0f8 <full_except_install+0xc4>
    a094:	e59f3138 	ldr	r3, [pc, #312]	@ a1d4 <full_except_install+0x1a0>
    a098:	ee0c3f10 	mcr	15, 0, r3, cr12, cr0, {0}
    a09c:	e3a02000 	mov	r2, #0
    a0a0:	ee072f95 	mcr	15, 0, r2, cr7, cr5, {4}
    a0a4:	ee1c2f10 	mrc	15, 0, r2, cr12, cr0, {0}
    a0a8:	e1520003 	cmp	r2, r3
    a0ac:	0affffea 	beq	a05c <full_except_install+0x28>
    a0b0:	e58d2004 	str	r2, [sp, #4]
    a0b4:	e58d3000 	str	r3, [sp]
    a0b8:	e3a03036 	mov	r3, #54	@ 0x36
    a0bc:	e59f2114 	ldr	r2, [pc, #276]	@ a1d8 <full_except_install+0x1a4>
    a0c0:	e59f1114 	ldr	r1, [pc, #276]	@ a1dc <full_except_install+0x1a8>
    a0c4:	e59f0114 	ldr	r0, [pc, #276]	@ a1e0 <full_except_install+0x1ac>
    a0c8:	eb0000ef 	bl	a48c <printk>
    a0cc:	eb00021e 	bl	a94c <clean_reboot>
    a0d0:	e3a03000 	mov	r3, #0
    a0d4:	eaffffe6 	b	a074 <full_except_install+0x40>
    a0d8:	e59f30f4 	ldr	r3, [pc, #244]	@ a1d4 <full_except_install+0x1a0>
    a0dc:	e58d3000 	str	r3, [sp]
    a0e0:	e3a03028 	mov	r3, #40	@ 0x28
    a0e4:	e59f20ec 	ldr	r2, [pc, #236]	@ a1d8 <full_except_install+0x1a4>
    a0e8:	e59f10ec 	ldr	r1, [pc, #236]	@ a1dc <full_except_install+0x1a8>
    a0ec:	e59f00f0 	ldr	r0, [pc, #240]	@ a1e4 <full_except_install+0x1b0>
    a0f0:	eb0000e5 	bl	a48c <printk>
    a0f4:	eb000214 	bl	a94c <clean_reboot>
    a0f8:	e58d3000 	str	r3, [sp]
    a0fc:	e3a03031 	mov	r3, #49	@ 0x31
    a100:	e59f20d0 	ldr	r2, [pc, #208]	@ a1d8 <full_except_install+0x1a4>
    a104:	e59f10d0 	ldr	r1, [pc, #208]	@ a1dc <full_except_install+0x1a8>
    a108:	e59f00d8 	ldr	r0, [pc, #216]	@ a1e8 <full_except_install+0x1b4>
    a10c:	eb0000de 	bl	a48c <printk>
    a110:	eb00020d 	bl	a94c <clean_reboot>
    a114:	e59f30b8 	ldr	r3, [pc, #184]	@ a1d4 <full_except_install+0x1a0>
    a118:	e313001f 	tst	r3, #31
    a11c:	03a00001 	moveq	r0, #1
    a120:	e3500000 	cmp	r0, #0
    a124:	0a000014 	beq	a17c <full_except_install+0x148>
    a128:	ee1c3f10 	mrc	15, 0, r3, cr12, cr0, {0}
    a12c:	e59f20a0 	ldr	r2, [pc, #160]	@ a1d4 <full_except_install+0x1a0>
    a130:	e1530002 	cmp	r3, r2
    a134:	0affffc8 	beq	a05c <full_except_install+0x28>
    a138:	e3530000 	cmp	r3, #0
    a13c:	1a000016 	bne	a19c <full_except_install+0x168>
    a140:	e59f308c 	ldr	r3, [pc, #140]	@ a1d4 <full_except_install+0x1a0>
    a144:	ee0c3f10 	mcr	15, 0, r3, cr12, cr0, {0}
    a148:	e3a02000 	mov	r2, #0
    a14c:	ee072f95 	mcr	15, 0, r2, cr7, cr5, {4}
    a150:	ee1c2f10 	mrc	15, 0, r2, cr12, cr0, {0}
    a154:	e1520003 	cmp	r2, r3
    a158:	0affffbf 	beq	a05c <full_except_install+0x28>
    a15c:	e58d2004 	str	r2, [sp, #4]
    a160:	e58d3000 	str	r3, [sp]
    a164:	e3a03036 	mov	r3, #54	@ 0x36
    a168:	e59f2068 	ldr	r2, [pc, #104]	@ a1d8 <full_except_install+0x1a4>
    a16c:	e59f1068 	ldr	r1, [pc, #104]	@ a1dc <full_except_install+0x1a8>
    a170:	e59f0068 	ldr	r0, [pc, #104]	@ a1e0 <full_except_install+0x1ac>
    a174:	eb0000c4 	bl	a48c <printk>
    a178:	eb0001f3 	bl	a94c <clean_reboot>
    a17c:	e59f3050 	ldr	r3, [pc, #80]	@ a1d4 <full_except_install+0x1a0>
    a180:	e58d3000 	str	r3, [sp]
    a184:	e3a03028 	mov	r3, #40	@ 0x28
    a188:	e59f2048 	ldr	r2, [pc, #72]	@ a1d8 <full_except_install+0x1a4>
    a18c:	e59f1048 	ldr	r1, [pc, #72]	@ a1dc <full_except_install+0x1a8>
    a190:	e59f004c 	ldr	r0, [pc, #76]	@ a1e4 <full_except_install+0x1b0>
    a194:	eb0000bc 	bl	a48c <printk>
    a198:	eb0001eb 	bl	a94c <clean_reboot>
    a19c:	e58d3000 	str	r3, [sp]
    a1a0:	e3a03031 	mov	r3, #49	@ 0x31
    a1a4:	e59f202c 	ldr	r2, [pc, #44]	@ a1d8 <full_except_install+0x1a4>
    a1a8:	e59f102c 	ldr	r1, [pc, #44]	@ a1dc <full_except_install+0x1a8>
    a1ac:	e59f0034 	ldr	r0, [pc, #52]	@ a1e8 <full_except_install+0x1b4>
    a1b0:	eb0000b5 	bl	a48c <printk>
    a1b4:	eb0001e4 	bl	a94c <clean_reboot>
    a1b8:	e58d3000 	str	r3, [sp]
    a1bc:	e3a03089 	mov	r3, #137	@ 0x89
    a1c0:	e59f2024 	ldr	r2, [pc, #36]	@ a1ec <full_except_install+0x1b8>
    a1c4:	e59f1024 	ldr	r1, [pc, #36]	@ a1f0 <full_except_install+0x1bc>
    a1c8:	e59f0024 	ldr	r0, [pc, #36]	@ a1f4 <full_except_install+0x1c0>
    a1cc:	eb0000ae 	bl	a48c <printk>
    a1d0:	eb0001dd 	bl	a94c <clean_reboot>
    a1d4:	0000cf80 	.word	0x0000cf80
    a1d8:	0000c7a0 	.word	0x0000c7a0
    a1dc:	0000bdc0 	.word	0x0000bdc0
    a1e0:	0000be30 	.word	0x0000be30
    a1e4:	0000bdd0 	.word	0x0000bdd0
    a1e8:	0000bdf8 	.word	0x0000bdf8
    a1ec:	0000c7b0 	.word	0x0000c7b0
    a1f0:	0000bc44 	.word	0x0000bc44
    a1f4:	0000be5c 	.word	0x0000be5c

0000a1f8 <gpio_set_output>:
    a1f8:	e350002f 	cmp	r0, #47	@ 0x2f
    a1fc:	1350001f 	cmpne	r0, #31
    a200:	812fff1e 	bxhi	lr
    a204:	e92d41f0 	push	{r4, r5, r6, r7, r8, lr}
    a208:	e1a04000 	mov	r4, r0
    a20c:	e59f5040 	ldr	r5, [pc, #64]	@ a254 <gpio_set_output+0x5c>
    a210:	e0853095 	umull	r3, r5, r5, r0
    a214:	e1a051a5 	lsr	r5, r5, #3
    a218:	e1a06105 	lsl	r6, r5, #2
    a21c:	e2867202 	add	r7, r6, #536870912	@ 0x20000000
    a220:	e2877602 	add	r7, r7, #2097152	@ 0x200000
    a224:	e1a00007 	mov	r0, r7
    a228:	ebfff77f 	bl	802c <GET32>
    a22c:	e0866005 	add	r6, r6, r5
    a230:	e0444086 	sub	r4, r4, r6, lsl #1
    a234:	e0844084 	add	r4, r4, r4, lsl #1
    a238:	e3a03007 	mov	r3, #7
    a23c:	e1c00413 	bic	r0, r0, r3, lsl r4
    a240:	e3a01001 	mov	r1, #1
    a244:	e1801411 	orr	r1, r0, r1, lsl r4
    a248:	e1a00007 	mov	r0, r7
    a24c:	ebfff774 	bl	8024 <PUT32>
    a250:	e8bd81f0 	pop	{r4, r5, r6, r7, r8, pc}
    a254:	cccccccd 	.word	0xcccccccd

0000a258 <gpio_set_on>:
    a258:	e350002f 	cmp	r0, #47	@ 0x2f
    a25c:	1350001f 	cmpne	r0, #31
    a260:	812fff1e 	bxhi	lr
    a264:	e92d4010 	push	{r4, lr}
    a268:	e1a022a0 	lsr	r2, r0, #5
    a26c:	e200001f 	and	r0, r0, #31
    a270:	e3a01001 	mov	r1, #1
    a274:	e1a01011 	lsl	r1, r1, r0
    a278:	e59f0008 	ldr	r0, [pc, #8]	@ a288 <gpio_set_on+0x30>
    a27c:	e0800102 	add	r0, r0, r2, lsl #2
    a280:	ebfff767 	bl	8024 <PUT32>
    a284:	e8bd8010 	pop	{r4, pc}
    a288:	2020001c 	.word	0x2020001c

0000a28c <gpio_set_off>:
    a28c:	e350002f 	cmp	r0, #47	@ 0x2f
    a290:	1350001f 	cmpne	r0, #31
    a294:	812fff1e 	bxhi	lr
    a298:	e92d4010 	push	{r4, lr}
    a29c:	e1a022a0 	lsr	r2, r0, #5
    a2a0:	e200001f 	and	r0, r0, #31
    a2a4:	e3a01001 	mov	r1, #1
    a2a8:	e1a01011 	lsl	r1, r1, r0
    a2ac:	e59f0008 	ldr	r0, [pc, #8]	@ a2bc <gpio_set_off+0x30>
    a2b0:	e0800102 	add	r0, r0, r2, lsl #2
    a2b4:	ebfff75a 	bl	8024 <PUT32>
    a2b8:	e8bd8010 	pop	{r4, pc}
    a2bc:	20200028 	.word	0x20200028

0000a2c0 <gpio_write>:
    a2c0:	e92d4010 	push	{r4, lr}
    a2c4:	e3510000 	cmp	r1, #0
    a2c8:	0a000001 	beq	a2d4 <gpio_write+0x14>
    a2cc:	ebffffe1 	bl	a258 <gpio_set_on>
    a2d0:	e8bd8010 	pop	{r4, pc}
    a2d4:	ebffffec 	bl	a28c <gpio_set_off>
    a2d8:	e8bd8010 	pop	{r4, pc}

0000a2dc <gpio_set_input>:
    a2dc:	e350002f 	cmp	r0, #47	@ 0x2f
    a2e0:	1350001f 	cmpne	r0, #31
    a2e4:	812fff1e 	bxhi	lr
    a2e8:	e92d41f0 	push	{r4, r5, r6, r7, r8, lr}
    a2ec:	e1a04000 	mov	r4, r0
    a2f0:	e59f5038 	ldr	r5, [pc, #56]	@ a330 <gpio_set_input+0x54>
    a2f4:	e0853095 	umull	r3, r5, r5, r0
    a2f8:	e1a051a5 	lsr	r5, r5, #3
    a2fc:	e1a06105 	lsl	r6, r5, #2
    a300:	e2867202 	add	r7, r6, #536870912	@ 0x20000000
    a304:	e2877602 	add	r7, r7, #2097152	@ 0x200000
    a308:	e1a00007 	mov	r0, r7
    a30c:	ebfff746 	bl	802c <GET32>
    a310:	e0866005 	add	r6, r6, r5
    a314:	e0444086 	sub	r4, r4, r6, lsl #1
    a318:	e0844084 	add	r4, r4, r4, lsl #1
    a31c:	e3a01007 	mov	r1, #7
    a320:	e1c01411 	bic	r1, r0, r1, lsl r4
    a324:	e1a00007 	mov	r0, r7
    a328:	ebfff73d 	bl	8024 <PUT32>
    a32c:	e8bd81f0 	pop	{r4, r5, r6, r7, r8, pc}
    a330:	cccccccd 	.word	0xcccccccd

0000a334 <gpio_read>:
    a334:	e350002f 	cmp	r0, #47	@ 0x2f
    a338:	1350001f 	cmpne	r0, #31
    a33c:	8a00000a 	bhi	a36c <gpio_read+0x38>
    a340:	e92d4010 	push	{r4, lr}
    a344:	e1a04000 	mov	r4, r0
    a348:	e1a002a0 	lsr	r0, r0, #5
    a34c:	e59f3020 	ldr	r3, [pc, #32]	@ a374 <gpio_read+0x40>
    a350:	e0830100 	add	r0, r3, r0, lsl #2
    a354:	ebfff734 	bl	802c <GET32>
    a358:	e204401f 	and	r4, r4, #31
    a35c:	e3a03001 	mov	r3, #1
    a360:	e0000413 	and	r0, r0, r3, lsl r4
    a364:	e1a00430 	lsr	r0, r0, r4
    a368:	e8bd8010 	pop	{r4, pc}
    a36c:	e3e00000 	mvn	r0, #0
    a370:	e12fff1e 	bx	lr
    a374:	20200034 	.word	0x20200034

0000a378 <gpio_set_function>:
    a378:	e350002f 	cmp	r0, #47	@ 0x2f
    a37c:	1350001f 	cmpne	r0, #31
    a380:	812fff1e 	bxhi	lr
    a384:	e92d41f0 	push	{r4, r5, r6, r7, r8, lr}
    a388:	e1a04000 	mov	r4, r0
    a38c:	e1a06001 	mov	r6, r1
    a390:	e3510007 	cmp	r1, #7
    a394:	88bd81f0 	pophi	{r4, r5, r6, r7, r8, pc}
    a398:	e59f503c 	ldr	r5, [pc, #60]	@ a3dc <gpio_set_function+0x64>
    a39c:	e0853095 	umull	r3, r5, r5, r0
    a3a0:	e1a051a5 	lsr	r5, r5, #3
    a3a4:	e1a08105 	lsl	r8, r5, #2
    a3a8:	e2887202 	add	r7, r8, #536870912	@ 0x20000000
    a3ac:	e2877602 	add	r7, r7, #2097152	@ 0x200000
    a3b0:	e1a00007 	mov	r0, r7
    a3b4:	ebfff71c 	bl	802c <GET32>
    a3b8:	e0888005 	add	r8, r8, r5
    a3bc:	e0444088 	sub	r4, r4, r8, lsl #1
    a3c0:	e0844084 	add	r4, r4, r4, lsl #1
    a3c4:	e3a03007 	mov	r3, #7
    a3c8:	e1c01413 	bic	r1, r0, r3, lsl r4
    a3cc:	e1811416 	orr	r1, r1, r6, lsl r4
    a3d0:	e1a00007 	mov	r0, r7
    a3d4:	ebfff712 	bl	8024 <PUT32>
    a3d8:	e8bd81f0 	pop	{r4, r5, r6, r7, r8, pc}
    a3dc:	cccccccd 	.word	0xcccccccd

0000a3e0 <memcpy>:
    a3e0:	e3100007 	tst	r0, #7
    a3e4:	1a00000f 	bne	a428 <memcpy+0x48>
    a3e8:	e3110007 	tst	r1, #7
    a3ec:	1a00000d 	bne	a428 <memcpy+0x48>
    a3f0:	e2123007 	ands	r3, r2, #7
    a3f4:	1a00000b 	bne	a428 <memcpy+0x48>
    a3f8:	e1a021a2 	lsr	r2, r2, #3
    a3fc:	e1530002 	cmp	r3, r2
    a400:	212fff1e 	bxcs	lr
    a404:	e92d0030 	push	{r4, r5}
    a408:	e1a0c183 	lsl	ip, r3, #3
    a40c:	e18140dc 	ldrd	r4, [r1, ip]
    a410:	e18040fc 	strd	r4, [r0, ip]
    a414:	e2833001 	add	r3, r3, #1
    a418:	e1530002 	cmp	r3, r2
    a41c:	3afffff9 	bcc	a408 <memcpy+0x28>
    a420:	e8bd0030 	pop	{r4, r5}
    a424:	e12fff1e 	bx	lr
    a428:	e2103003 	ands	r3, r0, #3
    a42c:	1a000011 	bne	a478 <memcpy+0x98>
    a430:	e211c003 	ands	ip, r1, #3
    a434:	1a00000c 	bne	a46c <memcpy+0x8c>
    a438:	e2123003 	ands	r3, r2, #3
    a43c:	1a00000f 	bne	a480 <memcpy+0xa0>
    a440:	e1a02122 	lsr	r2, r2, #2
    a444:	ea000002 	b	a454 <memcpy+0x74>
    a448:	e791c103 	ldr	ip, [r1, r3, lsl #2]
    a44c:	e780c103 	str	ip, [r0, r3, lsl #2]
    a450:	e2833001 	add	r3, r3, #1
    a454:	e1530002 	cmp	r3, r2
    a458:	3afffffa 	bcc	a448 <memcpy+0x68>
    a45c:	e12fff1e 	bx	lr
    a460:	e7d1c003 	ldrb	ip, [r1, r3]
    a464:	e7c0c003 	strb	ip, [r0, r3]
    a468:	e2833001 	add	r3, r3, #1
    a46c:	e1530002 	cmp	r3, r2
    a470:	3afffffa 	bcc	a460 <memcpy+0x80>
    a474:	e12fff1e 	bx	lr
    a478:	e3a03000 	mov	r3, #0
    a47c:	eafffffa 	b	a46c <memcpy+0x8c>
    a480:	e1a0300c 	mov	r3, ip
    a484:	eafffff8 	b	a46c <memcpy+0x8c>

0000a488 <memcpy_end>:
    a488:	e12fff1e 	bx	lr

0000a48c <printk>:
    a48c:	e92d000f 	push	{r0, r1, r2, r3}
    a490:	e52de004 	push	{lr}		@ (str lr, [sp, #-4]!)
    a494:	e24dd00c 	sub	sp, sp, #12
    a498:	e28d1014 	add	r1, sp, #20
    a49c:	e58d1004 	str	r1, [sp, #4]
    a4a0:	e59d0010 	ldr	r0, [sp, #16]
    a4a4:	eb000047 	bl	a5c8 <vprintk>
    a4a8:	e28dd00c 	add	sp, sp, #12
    a4ac:	e49de004 	pop	{lr}		@ (ldr lr, [sp], #4)
    a4b0:	e28dd010 	add	sp, sp, #16
    a4b4:	e12fff1e 	bx	lr

0000a4b8 <emit_val>:
    a4b8:	e92d4010 	push	{r4, lr}
    a4bc:	e24dd030 	sub	sp, sp, #48	@ 0x30
    a4c0:	e350000a 	cmp	r0, #10
    a4c4:	0a00000d 	beq	a500 <emit_val+0x48>
    a4c8:	e3500010 	cmp	r0, #16
    a4cc:	0a00001b 	beq	a540 <emit_val+0x88>
    a4d0:	e3500002 	cmp	r0, #2
    a4d4:	1a000023 	bne	a568 <emit_val+0xb0>
    a4d8:	e28d400c 	add	r4, sp, #12
    a4dc:	e2012001 	and	r2, r1, #1
    a4e0:	e59f00c0 	ldr	r0, [pc, #192]	@ a5a8 <emit_val+0xf0>
    a4e4:	e7d02002 	ldrb	r2, [r0, r2]
    a4e8:	e5c42000 	strb	r2, [r4]
    a4ec:	e2844001 	add	r4, r4, #1
    a4f0:	e3510001 	cmp	r1, #1
    a4f4:	e1a010a1 	lsr	r1, r1, #1
    a4f8:	8afffff7 	bhi	a4dc <emit_val+0x24>
    a4fc:	ea000024 	b	a594 <emit_val+0xdc>
    a500:	e28d400c 	add	r4, sp, #12
    a504:	e59f30a0 	ldr	r3, [pc, #160]	@ a5ac <emit_val+0xf4>
    a508:	e0832193 	umull	r2, r3, r3, r1
    a50c:	e1a031a3 	lsr	r3, r3, #3
    a510:	e1a00003 	mov	r0, r3
    a514:	e0833103 	add	r3, r3, r3, lsl #2
    a518:	e0413083 	sub	r3, r1, r3, lsl #1
    a51c:	e59fc08c 	ldr	ip, [pc, #140]	@ a5b0 <emit_val+0xf8>
    a520:	e7dcc003 	ldrb	ip, [ip, r3]
    a524:	e5c4c000 	strb	ip, [r4]
    a528:	e2844001 	add	r4, r4, #1
    a52c:	e1a03001 	mov	r3, r1
    a530:	e1a01000 	mov	r1, r0
    a534:	e3530009 	cmp	r3, #9
    a538:	8afffff1 	bhi	a504 <emit_val+0x4c>
    a53c:	ea000014 	b	a594 <emit_val+0xdc>
    a540:	e28d400c 	add	r4, sp, #12
    a544:	e201200f 	and	r2, r1, #15
    a548:	e59f0064 	ldr	r0, [pc, #100]	@ a5b4 <emit_val+0xfc>
    a54c:	e7d02002 	ldrb	r2, [r0, r2]
    a550:	e5c42000 	strb	r2, [r4]
    a554:	e2844001 	add	r4, r4, #1
    a558:	e351000f 	cmp	r1, #15
    a55c:	e1a01221 	lsr	r1, r1, #4
    a560:	8afffff7 	bhi	a544 <emit_val+0x8c>
    a564:	ea00000a 	b	a594 <emit_val+0xdc>
    a568:	e58d0000 	str	r0, [sp]
    a56c:	e3a0301b 	mov	r3, #27
    a570:	e59f2040 	ldr	r2, [pc, #64]	@ a5b8 <emit_val+0x100>
    a574:	e59f1040 	ldr	r1, [pc, #64]	@ a5bc <emit_val+0x104>
    a578:	e59f0040 	ldr	r0, [pc, #64]	@ a5c0 <emit_val+0x108>
    a57c:	ebffffc2 	bl	a48c <printk>
    a580:	eb0000f1 	bl	a94c <clean_reboot>
    a584:	e59f3038 	ldr	r3, [pc, #56]	@ a5c4 <emit_val+0x10c>
    a588:	e5933000 	ldr	r3, [r3]
    a58c:	e5740001 	ldrb	r0, [r4, #-1]!
    a590:	e12fff33 	blx	r3
    a594:	e28d300c 	add	r3, sp, #12
    a598:	e1540003 	cmp	r4, r3
    a59c:	8afffff8 	bhi	a584 <emit_val+0xcc>
    a5a0:	e28dd030 	add	sp, sp, #48	@ 0x30
    a5a4:	e8bd8010 	pop	{r4, pc}
    a5a8:	0000bed4 	.word	0x0000bed4
    a5ac:	cccccccd 	.word	0xcccccccd
    a5b0:	0000bed8 	.word	0x0000bed8
    a5b4:	0000bee4 	.word	0x0000bee4
    a5b8:	0000c7c4 	.word	0x0000c7c4
    a5bc:	0000bea0 	.word	0x0000bea0
    a5c0:	0000beb0 	.word	0x0000beb0
    a5c4:	0000d27c 	.word	0x0000d27c

0000a5c8 <vprintk>:
    a5c8:	e92d4030 	push	{r4, r5, lr}
    a5cc:	e24dd014 	sub	sp, sp, #20
    a5d0:	e1a04000 	mov	r4, r0
    a5d4:	e58d100c 	str	r1, [sp, #12]
    a5d8:	ea000024 	b	a670 <vprintk+0xa8>
    a5dc:	e2845001 	add	r5, r4, #1
    a5e0:	e5d42001 	ldrb	r2, [r4, #1]
    a5e4:	e2423062 	sub	r3, r2, #98	@ 0x62
    a5e8:	e3530016 	cmp	r3, #22
    a5ec:	979ff103 	ldrls	pc, [pc, r3, lsl #2]
    a5f0:	ea000094 	b	a848 <vprintk+0x280>
    a5f4:	0000a650 	.word	0x0000a650
    a5f8:	0000a6b4 	.word	0x0000a6b4
    a5fc:	0000a7cc 	.word	0x0000a7cc
    a600:	0000a848 	.word	0x0000a848
    a604:	0000a848 	.word	0x0000a848
    a608:	0000a848 	.word	0x0000a848
    a60c:	0000a848 	.word	0x0000a848
    a610:	0000a848 	.word	0x0000a848
    a614:	0000a848 	.word	0x0000a848
    a618:	0000a848 	.word	0x0000a848
    a61c:	0000a6d8 	.word	0x0000a6d8
    a620:	0000a848 	.word	0x0000a848
    a624:	0000a848 	.word	0x0000a848
    a628:	0000a848 	.word	0x0000a848
    a62c:	0000a790 	.word	0x0000a790
    a630:	0000a848 	.word	0x0000a848
    a634:	0000a848 	.word	0x0000a848
    a638:	0000a810 	.word	0x0000a810
    a63c:	0000a848 	.word	0x0000a848
    a640:	0000a694 	.word	0x0000a694
    a644:	0000a848 	.word	0x0000a848
    a648:	0000a848 	.word	0x0000a848
    a64c:	0000a790 	.word	0x0000a790
    a650:	e59d300c 	ldr	r3, [sp, #12]
    a654:	e2832004 	add	r2, r3, #4
    a658:	e58d200c 	str	r2, [sp, #12]
    a65c:	e5931000 	ldr	r1, [r3]
    a660:	e3a00002 	mov	r0, #2
    a664:	ebffff93 	bl	a4b8 <emit_val>
    a668:	e1a04005 	mov	r4, r5
    a66c:	e2844001 	add	r4, r4, #1
    a670:	e5d40000 	ldrb	r0, [r4]
    a674:	e3500000 	cmp	r0, #0
    a678:	0a000079 	beq	a864 <vprintk+0x29c>
    a67c:	e3500025 	cmp	r0, #37	@ 0x25
    a680:	0affffd5 	beq	a5dc <vprintk+0x14>
    a684:	e59f31e0 	ldr	r3, [pc, #480]	@ a86c <vprintk+0x2a4>
    a688:	e5933000 	ldr	r3, [r3]
    a68c:	e12fff33 	blx	r3
    a690:	eafffff5 	b	a66c <vprintk+0xa4>
    a694:	e59d300c 	ldr	r3, [sp, #12]
    a698:	e2832004 	add	r2, r3, #4
    a69c:	e58d200c 	str	r2, [sp, #12]
    a6a0:	e5931000 	ldr	r1, [r3]
    a6a4:	e3a0000a 	mov	r0, #10
    a6a8:	ebffff82 	bl	a4b8 <emit_val>
    a6ac:	e1a04005 	mov	r4, r5
    a6b0:	eaffffed 	b	a66c <vprintk+0xa4>
    a6b4:	e59f31b0 	ldr	r3, [pc, #432]	@ a86c <vprintk+0x2a4>
    a6b8:	e5932000 	ldr	r2, [r3]
    a6bc:	e59d300c 	ldr	r3, [sp, #12]
    a6c0:	e2831004 	add	r1, r3, #4
    a6c4:	e58d100c 	str	r1, [sp, #12]
    a6c8:	e5930000 	ldr	r0, [r3]
    a6cc:	e12fff32 	blx	r2
    a6d0:	e1a04005 	mov	r4, r5
    a6d4:	eaffffe4 	b	a66c <vprintk+0xa4>
    a6d8:	e2842002 	add	r2, r4, #2
    a6dc:	e5d43002 	ldrb	r3, [r4, #2]
    a6e0:	e353006c 	cmp	r3, #108	@ 0x6c
    a6e4:	1a000018 	bne	a74c <vprintk+0x184>
    a6e8:	e2845003 	add	r5, r4, #3
    a6ec:	e5d43003 	ldrb	r3, [r4, #3]
    a6f0:	e3530078 	cmp	r3, #120	@ 0x78
    a6f4:	1a00001b 	bne	a768 <vprintk+0x1a0>
    a6f8:	e59f416c 	ldr	r4, [pc, #364]	@ a86c <vprintk+0x2a4>
    a6fc:	e5943000 	ldr	r3, [r4]
    a700:	e3a00030 	mov	r0, #48	@ 0x30
    a704:	e12fff33 	blx	r3
    a708:	e5943000 	ldr	r3, [r4]
    a70c:	e3a00078 	mov	r0, #120	@ 0x78
    a710:	e12fff33 	blx	r3
    a714:	e59d300c 	ldr	r3, [sp, #12]
    a718:	e2833007 	add	r3, r3, #7
    a71c:	e3c33007 	bic	r3, r3, #7
    a720:	e2832008 	add	r2, r3, #8
    a724:	e58d200c 	str	r2, [sp, #12]
    a728:	e5934000 	ldr	r4, [r3]
    a72c:	e5931004 	ldr	r1, [r3, #4]
    a730:	e3510000 	cmp	r1, #0
    a734:	1a000012 	bne	a784 <vprintk+0x1bc>
    a738:	e1a01004 	mov	r1, r4
    a73c:	e3a00010 	mov	r0, #16
    a740:	ebffff5c 	bl	a4b8 <emit_val>
    a744:	e1a04005 	mov	r4, r5
    a748:	eaffffc7 	b	a66c <vprintk+0xa4>
    a74c:	e58d2000 	str	r2, [sp]
    a750:	e3a0303b 	mov	r3, #59	@ 0x3b
    a754:	e59f2114 	ldr	r2, [pc, #276]	@ a870 <vprintk+0x2a8>
    a758:	e59f1114 	ldr	r1, [pc, #276]	@ a874 <vprintk+0x2ac>
    a75c:	e59f0114 	ldr	r0, [pc, #276]	@ a878 <vprintk+0x2b0>
    a760:	ebffff49 	bl	a48c <printk>
    a764:	eb000078 	bl	a94c <clean_reboot>
    a768:	e58d5000 	str	r5, [sp]
    a76c:	e3a0303e 	mov	r3, #62	@ 0x3e
    a770:	e59f20f8 	ldr	r2, [pc, #248]	@ a870 <vprintk+0x2a8>
    a774:	e59f10f8 	ldr	r1, [pc, #248]	@ a874 <vprintk+0x2ac>
    a778:	e59f00f8 	ldr	r0, [pc, #248]	@ a878 <vprintk+0x2b0>
    a77c:	ebffff42 	bl	a48c <printk>
    a780:	eb000071 	bl	a94c <clean_reboot>
    a784:	e3a00010 	mov	r0, #16
    a788:	ebffff4a 	bl	a4b8 <emit_val>
    a78c:	eaffffe9 	b	a738 <vprintk+0x170>
    a790:	e59f40d4 	ldr	r4, [pc, #212]	@ a86c <vprintk+0x2a4>
    a794:	e5943000 	ldr	r3, [r4]
    a798:	e3a00030 	mov	r0, #48	@ 0x30
    a79c:	e12fff33 	blx	r3
    a7a0:	e5943000 	ldr	r3, [r4]
    a7a4:	e3a00078 	mov	r0, #120	@ 0x78
    a7a8:	e12fff33 	blx	r3
    a7ac:	e59d300c 	ldr	r3, [sp, #12]
    a7b0:	e2832004 	add	r2, r3, #4
    a7b4:	e58d200c 	str	r2, [sp, #12]
    a7b8:	e5931000 	ldr	r1, [r3]
    a7bc:	e3a00010 	mov	r0, #16
    a7c0:	ebffff3c 	bl	a4b8 <emit_val>
    a7c4:	e1a04005 	mov	r4, r5
    a7c8:	eaffffa7 	b	a66c <vprintk+0xa4>
    a7cc:	e59d300c 	ldr	r3, [sp, #12]
    a7d0:	e2832004 	add	r2, r3, #4
    a7d4:	e58d200c 	str	r2, [sp, #12]
    a7d8:	e5934000 	ldr	r4, [r3]
    a7dc:	e3540000 	cmp	r4, #0
    a7e0:	ba000004 	blt	a7f8 <vprintk+0x230>
    a7e4:	e1a01004 	mov	r1, r4
    a7e8:	e3a0000a 	mov	r0, #10
    a7ec:	ebffff31 	bl	a4b8 <emit_val>
    a7f0:	e1a04005 	mov	r4, r5
    a7f4:	eaffff9c 	b	a66c <vprintk+0xa4>
    a7f8:	e59f306c 	ldr	r3, [pc, #108]	@ a86c <vprintk+0x2a4>
    a7fc:	e5933000 	ldr	r3, [r3]
    a800:	e3a0002d 	mov	r0, #45	@ 0x2d
    a804:	e12fff33 	blx	r3
    a808:	e2644000 	rsb	r4, r4, #0
    a80c:	eafffff4 	b	a7e4 <vprintk+0x21c>
    a810:	e59d300c 	ldr	r3, [sp, #12]
    a814:	e2832004 	add	r2, r3, #4
    a818:	e58d200c 	str	r2, [sp, #12]
    a81c:	e5934000 	ldr	r4, [r3]
    a820:	e5d40000 	ldrb	r0, [r4]
    a824:	e3500000 	cmp	r0, #0
    a828:	0a000004 	beq	a840 <vprintk+0x278>
    a82c:	e59f3038 	ldr	r3, [pc, #56]	@ a86c <vprintk+0x2a4>
    a830:	e5933000 	ldr	r3, [r3]
    a834:	e12fff33 	blx	r3
    a838:	e2844001 	add	r4, r4, #1
    a83c:	eafffff7 	b	a820 <vprintk+0x258>
    a840:	e1a04005 	mov	r4, r5
    a844:	eaffff88 	b	a66c <vprintk+0xa4>
    a848:	e58d2000 	str	r2, [sp]
    a84c:	e3a03062 	mov	r3, #98	@ 0x62
    a850:	e59f2018 	ldr	r2, [pc, #24]	@ a870 <vprintk+0x2a8>
    a854:	e59f1018 	ldr	r1, [pc, #24]	@ a874 <vprintk+0x2ac>
    a858:	e59f001c 	ldr	r0, [pc, #28]	@ a87c <vprintk+0x2b4>
    a85c:	ebffff0a 	bl	a48c <printk>
    a860:	eb000039 	bl	a94c <clean_reboot>
    a864:	e28dd014 	add	sp, sp, #20
    a868:	e8bd8030 	pop	{r4, r5, pc}
    a86c:	0000d27c 	.word	0x0000d27c
    a870:	0000c7d0 	.word	0x0000c7d0
    a874:	0000bea0 	.word	0x0000bea0
    a878:	0000bef8 	.word	0x0000bef8
    a87c:	0000bf30 	.word	0x0000bf30

0000a880 <default_putchar>:
    a880:	e92d4010 	push	{r4, lr}
    a884:	e1a04000 	mov	r4, r0
    a888:	e6ef0070 	uxtb	r0, r0
    a88c:	eb000285 	bl	b2a8 <uart_put8>
    a890:	e1a00004 	mov	r0, r4
    a894:	e8bd8010 	pop	{r4, pc}

0000a898 <rpi_putchar_set>:
    a898:	e59f300c 	ldr	r3, [pc, #12]	@ a8ac <rpi_putchar_set+0x14>
    a89c:	e5932000 	ldr	r2, [r3]
    a8a0:	e5830000 	str	r0, [r3]
    a8a4:	e1a00002 	mov	r0, r2
    a8a8:	e12fff1e 	bx	lr
    a8ac:	0000d27c 	.word	0x0000d27c

0000a8b0 <asm_not_reached_helper>:
    a8b0:	e92d4010 	push	{r4, lr}
    a8b4:	e1a04000 	mov	r4, r0
    a8b8:	e59f0010 	ldr	r0, [pc, #16]	@ a8d0 <asm_not_reached_helper+0x20>
    a8bc:	ebfffef2 	bl	a48c <printk>
    a8c0:	e1a01004 	mov	r1, r4
    a8c4:	e59f0008 	ldr	r0, [pc, #8]	@ a8d4 <asm_not_reached_helper+0x24>
    a8c8:	ebfffeef 	bl	a48c <printk>
    a8cc:	eb00001e 	bl	a94c <clean_reboot>
    a8d0:	0000bf58 	.word	0x0000bf58
    a8d4:	0000bf8c 	.word	0x0000bf8c

0000a8d8 <asm_not_implemented_helper>:
    a8d8:	e92d4010 	push	{r4, lr}
    a8dc:	e1a04000 	mov	r4, r0
    a8e0:	e59f0010 	ldr	r0, [pc, #16]	@ a8f8 <asm_not_implemented_helper+0x20>
    a8e4:	ebfffee8 	bl	a48c <printk>
    a8e8:	e1a01004 	mov	r1, r4
    a8ec:	e59f0008 	ldr	r0, [pc, #8]	@ a8fc <asm_not_implemented_helper+0x24>
    a8f0:	ebfffee5 	bl	a48c <printk>
    a8f4:	eb000014 	bl	a94c <clean_reboot>
    a8f8:	0000bfc0 	.word	0x0000bfc0
    a8fc:	0000bf8c 	.word	0x0000bf8c

0000a900 <asm_todo_helper>:
    a900:	e92d4010 	push	{r4, lr}
    a904:	e1a04001 	mov	r4, r1
    a908:	e59f0018 	ldr	r0, [pc, #24]	@ a928 <asm_todo_helper+0x28>
    a90c:	ebfffede 	bl	a48c <printk>
    a910:	e59f0014 	ldr	r0, [pc, #20]	@ a92c <asm_todo_helper+0x2c>
    a914:	ebfffedc 	bl	a48c <printk>
    a918:	e1a01004 	mov	r1, r4
    a91c:	e59f000c 	ldr	r0, [pc, #12]	@ a930 <asm_todo_helper+0x30>
    a920:	ebfffed9 	bl	a48c <printk>
    a924:	eb000008 	bl	a94c <clean_reboot>
    a928:	0000bfec 	.word	0x0000bfec
    a92c:	0000c024 	.word	0x0000c024
    a930:	0000c058 	.word	0x0000c058

0000a934 <asm_bad_exception_helper>:
    a934:	e92d4010 	push	{r4, lr}
    a938:	e1a02000 	mov	r2, r0
    a93c:	e59f0004 	ldr	r0, [pc, #4]	@ a948 <asm_bad_exception_helper+0x14>
    a940:	ebfffed1 	bl	a48c <printk>
    a944:	eb000000 	bl	a94c <clean_reboot>
    a948:	0000c060 	.word	0x0000c060

0000a94c <clean_reboot>:
    a94c:	e92d4010 	push	{r4, lr}
    a950:	e59f0010 	ldr	r0, [pc, #16]	@ a968 <clean_reboot+0x1c>
    a954:	eb0002b3 	bl	b428 <putk>
    a958:	eb00027b 	bl	b34c <uart_flush_tx>
    a95c:	e3a0000a 	mov	r0, #10
    a960:	eb0000c2 	bl	ac70 <delay_ms>
    a964:	eb000097 	bl	abc8 <rpi_reboot>
    a968:	0000c080 	.word	0x0000c080

0000a96c <redzone_check>:
    a96c:	e52de004 	push	{lr}		@ (str lr, [sp, #-4]!)
    a970:	e24dd014 	sub	sp, sp, #20
    a974:	e2501000 	subs	r1, r0, #0
    a978:	0a000001 	beq	a984 <redzone_check+0x18>
    a97c:	e59f0058 	ldr	r0, [pc, #88]	@ a9dc <redzone_check+0x70>
    a980:	ebfffec1 	bl	a48c <printk>
    a984:	e3a03000 	mov	r3, #0
    a988:	e3530b01 	cmp	r3, #1024	@ 0x400
    a98c:	2a00000f 	bcs	a9d0 <redzone_check+0x64>
    a990:	e1a02103 	lsl	r2, r3, #2
    a994:	e5921000 	ldr	r1, [r2]
    a998:	e3510000 	cmp	r1, #0
    a99c:	02833001 	addeq	r3, r3, #1
    a9a0:	0afffff8 	beq	a988 <redzone_check+0x1c>
    a9a4:	e5923000 	ldr	r3, [r2]
    a9a8:	e3a01001 	mov	r1, #1
    a9ac:	e58d1008 	str	r1, [sp, #8]
    a9b0:	e58d3004 	str	r3, [sp, #4]
    a9b4:	e58d2000 	str	r2, [sp]
    a9b8:	e3a03012 	mov	r3, #18
    a9bc:	e59f201c 	ldr	r2, [pc, #28]	@ a9e0 <redzone_check+0x74>
    a9c0:	e59f101c 	ldr	r1, [pc, #28]	@ a9e4 <redzone_check+0x78>
    a9c4:	e59f001c 	ldr	r0, [pc, #28]	@ a9e8 <redzone_check+0x7c>
    a9c8:	ebfffeaf 	bl	a48c <printk>
    a9cc:	ebffffde 	bl	a94c <clean_reboot>
    a9d0:	e3a00001 	mov	r0, #1
    a9d4:	e28dd014 	add	sp, sp, #20
    a9d8:	e49df004 	pop	{pc}		@ (ldr pc, [sp], #4)
    a9dc:	0000c08c 	.word	0x0000c08c
    a9e0:	0000c7d8 	.word	0x0000c7d8
    a9e4:	0000c0a4 	.word	0x0000c0a4
    a9e8:	0000c0e8 	.word	0x0000c0e8

0000a9ec <redzone_init>:
    a9ec:	e52de004 	push	{lr}		@ (str lr, [sp, #-4]!)
    a9f0:	e24dd00c 	sub	sp, sp, #12
    a9f4:	e3a02a01 	mov	r2, #4096	@ 0x1000
    a9f8:	e3a01000 	mov	r1, #0
    a9fc:	e1a00001 	mov	r0, r1
    aa00:	eb000262 	bl	b390 <memset>
    aa04:	e3a00000 	mov	r0, #0
    aa08:	ebffffd7 	bl	a96c <redzone_check>
    aa0c:	e3500000 	cmp	r0, #0
    aa10:	0a000001 	beq	aa1c <redzone_init+0x30>
    aa14:	e28dd00c 	add	sp, sp, #12
    aa18:	e49df004 	pop	{pc}		@ (ldr pc, [sp], #4)
    aa1c:	e59f3018 	ldr	r3, [pc, #24]	@ aa3c <redzone_init+0x50>
    aa20:	e58d3000 	str	r3, [sp]
    aa24:	e3a0301a 	mov	r3, #26
    aa28:	e59f2010 	ldr	r2, [pc, #16]	@ aa40 <redzone_init+0x54>
    aa2c:	e59f1010 	ldr	r1, [pc, #16]	@ aa44 <redzone_init+0x58>
    aa30:	e59f0010 	ldr	r0, [pc, #16]	@ aa48 <redzone_init+0x5c>
    aa34:	ebfffe94 	bl	a48c <printk>
    aa38:	ebffffc3 	bl	a94c <clean_reboot>
    aa3c:	0000c124 	.word	0x0000c124
    aa40:	0000c7e8 	.word	0x0000c7e8
    aa44:	0000c0a4 	.word	0x0000c0a4
    aa48:	0000b4cc 	.word	0x0000b4cc

0000aa4c <_cstart>:
    aa4c:	e92d4010 	push	{r4, lr}
    aa50:	eb00000e 	bl	aa90 <custom_loader>
    aa54:	e59f302c 	ldr	r3, [pc, #44]	@ aa88 <_cstart+0x3c>
    aa58:	ea000001 	b	aa64 <_cstart+0x18>
    aa5c:	e3a02000 	mov	r2, #0
    aa60:	e4832004 	str	r2, [r3], #4
    aa64:	e59f2020 	ldr	r2, [pc, #32]	@ aa8c <_cstart+0x40>
    aa68:	e1530002 	cmp	r3, r2
    aa6c:	3afffffa 	bcc	aa5c <_cstart+0x10>
    aa70:	ebffffdd 	bl	a9ec <redzone_init>
    aa74:	eb0001d9 	bl	b1e0 <uart_init>
    aa78:	e3a03001 	mov	r3, #1
    aa7c:	ee0f3f1c 	mcr	15, 0, r3, cr15, cr12, {0}
    aa80:	ebfff56c 	bl	8038 <notmain>
    aa84:	ebffffb0 	bl	a94c <clean_reboot>
    aa88:	0000d28c 	.word	0x0000d28c
    aa8c:	0000d2a0 	.word	0x0000d2a0

0000aa90 <custom_loader>:
    aa90:	e12fff1e 	bx	lr

0000aa94 <int_vector>:
    aa94:	e52de004 	push	{lr}		@ (str lr, [sp, #-4]!)
    aa98:	e24dd00c 	sub	sp, sp, #12
    aa9c:	e58d0004 	str	r0, [sp, #4]
    aaa0:	e59f3018 	ldr	r3, [pc, #24]	@ aac0 <int_vector+0x2c>
    aaa4:	e58d3000 	str	r3, [sp]
    aaa8:	e3a03003 	mov	r3, #3
    aaac:	e59f2010 	ldr	r2, [pc, #16]	@ aac4 <int_vector+0x30>
    aab0:	e59f1010 	ldr	r1, [pc, #16]	@ aac8 <int_vector+0x34>
    aab4:	e59f0010 	ldr	r0, [pc, #16]	@ aacc <int_vector+0x38>
    aab8:	ebfffe73 	bl	a48c <printk>
    aabc:	ebffffa2 	bl	a94c <clean_reboot>
    aac0:	0000c1a8 	.word	0x0000c1a8
    aac4:	0000c7f8 	.word	0x0000c7f8
    aac8:	0000c138 	.word	0x0000c138
    aacc:	0000c15c 	.word	0x0000c15c

0000aad0 <prefetch_abort_vector>:
    aad0:	e52de004 	push	{lr}		@ (str lr, [sp, #-4]!)
    aad4:	e24dd00c 	sub	sp, sp, #12
    aad8:	e58d0004 	str	r0, [sp, #4]
    aadc:	e59f3018 	ldr	r3, [pc, #24]	@ aafc <prefetch_abort_vector+0x2c>
    aae0:	e58d3000 	str	r3, [sp]
    aae4:	e3a03002 	mov	r3, #2
    aae8:	e59f2010 	ldr	r2, [pc, #16]	@ ab00 <prefetch_abort_vector+0x30>
    aaec:	e59f1010 	ldr	r1, [pc, #16]	@ ab04 <prefetch_abort_vector+0x34>
    aaf0:	e59f0010 	ldr	r0, [pc, #16]	@ ab08 <prefetch_abort_vector+0x38>
    aaf4:	ebfffe64 	bl	a48c <printk>
    aaf8:	ebffff93 	bl	a94c <clean_reboot>
    aafc:	0000c1dc 	.word	0x0000c1dc
    ab00:	0000c804 	.word	0x0000c804
    ab04:	0000c1b4 	.word	0x0000c1b4
    ab08:	0000c15c 	.word	0x0000c15c

0000ab0c <reset_vector>:
    ab0c:	e52de004 	push	{lr}		@ (str lr, [sp, #-4]!)
    ab10:	e24dd00c 	sub	sp, sp, #12
    ab14:	e58d0004 	str	r0, [sp, #4]
    ab18:	e59f3018 	ldr	r3, [pc, #24]	@ ab38 <reset_vector+0x2c>
    ab1c:	e58d3000 	str	r3, [sp]
    ab20:	e3a03002 	mov	r3, #2
    ab24:	e59f2010 	ldr	r2, [pc, #16]	@ ab3c <reset_vector+0x30>
    ab28:	e59f1010 	ldr	r1, [pc, #16]	@ ab40 <reset_vector+0x34>
    ab2c:	e59f0010 	ldr	r0, [pc, #16]	@ ab44 <reset_vector+0x38>
    ab30:	ebfffe55 	bl	a48c <printk>
    ab34:	ebffff84 	bl	a94c <clean_reboot>
    ab38:	0000c210 	.word	0x0000c210
    ab3c:	0000c81c 	.word	0x0000c81c
    ab40:	0000c1ec 	.word	0x0000c1ec
    ab44:	0000c15c 	.word	0x0000c15c

0000ab48 <undefined_instruction_vector>:
    ab48:	e52de004 	push	{lr}		@ (str lr, [sp, #-4]!)
    ab4c:	e24dd00c 	sub	sp, sp, #12
    ab50:	e58d0004 	str	r0, [sp, #4]
    ab54:	e59f3018 	ldr	r3, [pc, #24]	@ ab74 <undefined_instruction_vector+0x2c>
    ab58:	e58d3000 	str	r3, [sp]
    ab5c:	e3a03002 	mov	r3, #2
    ab60:	e59f2010 	ldr	r2, [pc, #16]	@ ab78 <undefined_instruction_vector+0x30>
    ab64:	e59f1010 	ldr	r1, [pc, #16]	@ ab7c <undefined_instruction_vector+0x34>
    ab68:	e59f0010 	ldr	r0, [pc, #16]	@ ab80 <undefined_instruction_vector+0x38>
    ab6c:	ebfffe46 	bl	a48c <printk>
    ab70:	ebffff75 	bl	a94c <clean_reboot>
    ab74:	0000c248 	.word	0x0000c248
    ab78:	0000c82c 	.word	0x0000c82c
    ab7c:	0000c218 	.word	0x0000c218
    ab80:	0000c15c 	.word	0x0000c15c

0000ab84 <dev_barrier>:
    ab84:	ea000002 	b	ab94 <dsb>

0000ab88 <dmb>:
    ab88:	e3a00000 	mov	r0, #0
    ab8c:	ee070fba 	mcr	15, 0, r0, cr7, cr10, {5}
    ab90:	e12fff1e 	bx	lr

0000ab94 <dsb>:
    ab94:	ee070f9a 	mcr	15, 0, r0, cr7, cr10, {4}
    ab98:	e12fff1e 	bx	lr

0000ab9c <at_user_level>:
    ab9c:	e10f0000 	mrs	r0, CPSR
    aba0:	e200001f 	and	r0, r0, #31
    aba4:	e3500010 	cmp	r0, #16
    aba8:	13a00000 	movne	r0, #0
    abac:	03a00001 	moveq	r0, #1
    abb0:	e12fff1e 	bx	lr

0000abb4 <set_user_level>:
    abb4:	e10f3000 	mrs	r3, CPSR
    abb8:	e3c3301f 	bic	r3, r3, #31
    abbc:	e3833010 	orr	r3, r3, #16
    abc0:	e129f003 	msr	CPSR_fc, r3
    abc4:	e12fff1e 	bx	lr

0000abc8 <rpi_reboot>:
    abc8:	e92d4010 	push	{r4, lr}
    abcc:	ebfffff2 	bl	ab9c <at_user_level>
    abd0:	e3500000 	cmp	r0, #0
    abd4:	1a00000a 	bne	ac04 <rpi_reboot+0x3c>
    abd8:	eb00021f 	bl	b45c <reboot_callout>
    abdc:	eb0001da 	bl	b34c <uart_flush_tx>
    abe0:	e3a0000a 	mov	r0, #10
    abe4:	eb000021 	bl	ac70 <delay_ms>
    abe8:	e59f101c 	ldr	r1, [pc, #28]	@ ac0c <rpi_reboot+0x44>
    abec:	e59f001c 	ldr	r0, [pc, #28]	@ ac10 <rpi_reboot+0x48>
    abf0:	ebfff50b 	bl	8024 <PUT32>
    abf4:	e59f1018 	ldr	r1, [pc, #24]	@ ac14 <rpi_reboot+0x4c>
    abf8:	e59f0018 	ldr	r0, [pc, #24]	@ ac18 <rpi_reboot+0x50>
    abfc:	ebfff508 	bl	8024 <PUT32>
    ac00:	eafffffe 	b	ac00 <rpi_reboot+0x38>
    ac04:	ebffffea 	bl	abb4 <set_user_level>
    ac08:	eafffff2 	b	abd8 <rpi_reboot+0x10>
    ac0c:	5a000001 	.word	0x5a000001
    ac10:	20100024 	.word	0x20100024
    ac14:	5a000020 	.word	0x5a000020
    ac18:	2010001c 	.word	0x2010001c

0000ac1c <timer_get_usec_raw>:
    ac1c:	e92d4010 	push	{r4, lr}
    ac20:	e59f0004 	ldr	r0, [pc, #4]	@ ac2c <timer_get_usec_raw+0x10>
    ac24:	ebfff500 	bl	802c <GET32>
    ac28:	e8bd8010 	pop	{r4, pc}
    ac2c:	20003004 	.word	0x20003004

0000ac30 <timer_get_usec>:
    ac30:	e92d4010 	push	{r4, lr}
    ac34:	ebffffd2 	bl	ab84 <dev_barrier>
    ac38:	ebfffff7 	bl	ac1c <timer_get_usec_raw>
    ac3c:	e1a04000 	mov	r4, r0
    ac40:	ebffffcf 	bl	ab84 <dev_barrier>
    ac44:	e1a00004 	mov	r0, r4
    ac48:	e8bd8010 	pop	{r4, pc}

0000ac4c <delay_us>:
    ac4c:	e92d4070 	push	{r4, r5, r6, lr}
    ac50:	e1a05000 	mov	r5, r0
    ac54:	ebfffff5 	bl	ac30 <timer_get_usec>
    ac58:	e1a04000 	mov	r4, r0
    ac5c:	ebfffff3 	bl	ac30 <timer_get_usec>
    ac60:	e0400004 	sub	r0, r0, r4
    ac64:	e1500005 	cmp	r0, r5
    ac68:	3afffffb 	bcc	ac5c <delay_us+0x10>
    ac6c:	e8bd8070 	pop	{r4, r5, r6, pc}

0000ac70 <delay_ms>:
    ac70:	e92d4010 	push	{r4, lr}
    ac74:	e0603280 	rsb	r3, r0, r0, lsl #5
    ac78:	e0800103 	add	r0, r0, r3, lsl #2
    ac7c:	e1a00180 	lsl	r0, r0, #3
    ac80:	ebfffff1 	bl	ac4c <delay_us>
    ac84:	e8bd8010 	pop	{r4, pc}

0000ac88 <delay_sec>:
    ac88:	e92d4010 	push	{r4, lr}
    ac8c:	e0603280 	rsb	r3, r0, r0, lsl #5
    ac90:	e0800103 	add	r0, r0, r3, lsl #2
    ac94:	e1a00180 	lsl	r0, r0, #3
    ac98:	ebfffff4 	bl	ac70 <delay_ms>
    ac9c:	e8bd8010 	pop	{r4, pc}

0000aca0 <gpio_set_pud>:
    aca0:	e92d4070 	push	{r4, r5, r6, lr}
    aca4:	e24dd008 	sub	sp, sp, #8
    aca8:	e350001f 	cmp	r0, #31
    acac:	8a000020 	bhi	ad34 <gpio_set_pud+0x94>
    acb0:	e1a05000 	mov	r5, r0
    acb4:	e1a04001 	mov	r4, r1
    acb8:	e3510003 	cmp	r1, #3
    acbc:	8a000024 	bhi	ad54 <gpio_set_pud+0xb4>
    acc0:	e3510002 	cmp	r1, #2
    acc4:	8a00002a 	bhi	ad74 <gpio_set_pud+0xd4>
    acc8:	ebffffad 	bl	ab84 <dev_barrier>
    accc:	e59f60b8 	ldr	r6, [pc, #184]	@ ad8c <gpio_set_pud+0xec>
    acd0:	e1a01004 	mov	r1, r4
    acd4:	e1a00006 	mov	r0, r6
    acd8:	ebfff4d1 	bl	8024 <PUT32>
    acdc:	e3a00096 	mov	r0, #150	@ 0x96
    ace0:	ebffffd9 	bl	ac4c <delay_us>
    ace4:	e59f40a4 	ldr	r4, [pc, #164]	@ ad90 <gpio_set_pud+0xf0>
    ace8:	e3a01001 	mov	r1, #1
    acec:	e1a01511 	lsl	r1, r1, r5
    acf0:	e1a00004 	mov	r0, r4
    acf4:	ebfff4ca 	bl	8024 <PUT32>
    acf8:	e3a00096 	mov	r0, #150	@ 0x96
    acfc:	ebffffd2 	bl	ac4c <delay_us>
    ad00:	e3a01000 	mov	r1, #0
    ad04:	e1a00006 	mov	r0, r6
    ad08:	ebfff4c5 	bl	8024 <PUT32>
    ad0c:	e3a00096 	mov	r0, #150	@ 0x96
    ad10:	ebffffcd 	bl	ac4c <delay_us>
    ad14:	e3a01000 	mov	r1, #0
    ad18:	e1a00004 	mov	r0, r4
    ad1c:	ebfff4c0 	bl	8024 <PUT32>
    ad20:	e3a00096 	mov	r0, #150	@ 0x96
    ad24:	ebffffc8 	bl	ac4c <delay_us>
    ad28:	ebffff95 	bl	ab84 <dev_barrier>
    ad2c:	e28dd008 	add	sp, sp, #8
    ad30:	e8bd8070 	pop	{r4, r5, r6, pc}
    ad34:	e59f3058 	ldr	r3, [pc, #88]	@ ad94 <gpio_set_pud+0xf4>
    ad38:	e58d3000 	str	r3, [sp]
    ad3c:	e3a03012 	mov	r3, #18
    ad40:	e59f2050 	ldr	r2, [pc, #80]	@ ad98 <gpio_set_pud+0xf8>
    ad44:	e59f1050 	ldr	r1, [pc, #80]	@ ad9c <gpio_set_pud+0xfc>
    ad48:	e59f0050 	ldr	r0, [pc, #80]	@ ada0 <gpio_set_pud+0x100>
    ad4c:	ebfffdce 	bl	a48c <printk>
    ad50:	ebfffefd 	bl	a94c <clean_reboot>
    ad54:	e59f3048 	ldr	r3, [pc, #72]	@ ada4 <gpio_set_pud+0x104>
    ad58:	e58d3000 	str	r3, [sp]
    ad5c:	e3a03013 	mov	r3, #19
    ad60:	e59f2030 	ldr	r2, [pc, #48]	@ ad98 <gpio_set_pud+0xf8>
    ad64:	e59f1030 	ldr	r1, [pc, #48]	@ ad9c <gpio_set_pud+0xfc>
    ad68:	e59f0038 	ldr	r0, [pc, #56]	@ ada8 <gpio_set_pud+0x108>
    ad6c:	ebfffdc6 	bl	a48c <printk>
    ad70:	ebfffef5 	bl	a94c <clean_reboot>
    ad74:	e3a03018 	mov	r3, #24
    ad78:	e59f2018 	ldr	r2, [pc, #24]	@ ad98 <gpio_set_pud+0xf8>
    ad7c:	e59f1018 	ldr	r1, [pc, #24]	@ ad9c <gpio_set_pud+0xfc>
    ad80:	e59f0024 	ldr	r0, [pc, #36]	@ adac <gpio_set_pud+0x10c>
    ad84:	ebfffdc0 	bl	a48c <printk>
    ad88:	ebfffeef 	bl	a94c <clean_reboot>
    ad8c:	20200094 	.word	0x20200094
    ad90:	20200098 	.word	0x20200098
    ad94:	0000c29c 	.word	0x0000c29c
    ad98:	0000c84c 	.word	0x0000c84c
    ad9c:	0000c258 	.word	0x0000c258
    ada0:	0000c264 	.word	0x0000c264
    ada4:	0000c2e0 	.word	0x0000c2e0
    ada8:	0000c2a8 	.word	0x0000c2a8
    adac:	0000c2e8 	.word	0x0000c2e8

0000adb0 <gpio_set_pullup>:
    adb0:	e92d4010 	push	{r4, lr}
    adb4:	e3a01002 	mov	r1, #2
    adb8:	ebffffb8 	bl	aca0 <gpio_set_pud>
    adbc:	e8bd8010 	pop	{r4, pc}

0000adc0 <gpio_set_pulldown>:
    adc0:	e92d4010 	push	{r4, lr}
    adc4:	e3a01001 	mov	r1, #1
    adc8:	ebffffb4 	bl	aca0 <gpio_set_pud>
    adcc:	e8bd8010 	pop	{r4, pc}

0000add0 <gpio_pud_off>:
    add0:	e92d4010 	push	{r4, lr}
    add4:	e3a01000 	mov	r1, #0
    add8:	ebffffb0 	bl	aca0 <gpio_set_pud>
    addc:	e8bd8010 	pop	{r4, pc}

0000ade0 <gpio_get_pud>:
    ade0:	e92d4010 	push	{r4, lr}
    ade4:	e59f0008 	ldr	r0, [pc, #8]	@ adf4 <gpio_get_pud+0x14>
    ade8:	ebfff48f 	bl	802c <GET32>
    adec:	e2000003 	and	r0, r0, #3
    adf0:	e8bd8010 	pop	{r4, pc}
    adf4:	20200094 	.word	0x20200094

0000adf8 <gpio_is_pullup>:
    adf8:	e92d4010 	push	{r4, lr}
    adfc:	ebfffff7 	bl	ade0 <gpio_get_pud>
    ae00:	e3500002 	cmp	r0, #2
    ae04:	13a00000 	movne	r0, #0
    ae08:	03a00001 	moveq	r0, #1
    ae0c:	e8bd8010 	pop	{r4, pc}

0000ae10 <gpio_is_pulldown>:
    ae10:	e92d4010 	push	{r4, lr}
    ae14:	ebfffff1 	bl	ade0 <gpio_get_pud>
    ae18:	e3500001 	cmp	r0, #1
    ae1c:	13a00000 	movne	r0, #0
    ae20:	03a00001 	moveq	r0, #1
    ae24:	e8bd8010 	pop	{r4, pc}

0000ae28 <kmalloc_heap_end>:
    ae28:	e59f3004 	ldr	r3, [pc, #4]	@ ae34 <kmalloc_heap_end+0xc>
    ae2c:	e5930000 	ldr	r0, [r3]
    ae30:	e12fff1e 	bx	lr
    ae34:	0000d280 	.word	0x0000d280

0000ae38 <kmalloc_heap_start>:
    ae38:	e59f3004 	ldr	r3, [pc, #4]	@ ae44 <kmalloc_heap_start+0xc>
    ae3c:	e5930004 	ldr	r0, [r3, #4]
    ae40:	e12fff1e 	bx	lr
    ae44:	0000d280 	.word	0x0000d280

0000ae48 <kmalloc_heap_ptr>:
    ae48:	e59f3004 	ldr	r3, [pc, #4]	@ ae54 <kmalloc_heap_ptr+0xc>
    ae4c:	e5930008 	ldr	r0, [r3, #8]
    ae50:	e12fff1e 	bx	lr
    ae54:	0000d280 	.word	0x0000d280

0000ae58 <kmalloc_init_set_start>:
    ae58:	e52de004 	push	{lr}		@ (str lr, [sp, #-4]!)
    ae5c:	e24dd00c 	sub	sp, sp, #12
    ae60:	e59f30a8 	ldr	r3, [pc, #168]	@ af10 <kmalloc_init_set_start+0xb8>
    ae64:	e5933000 	ldr	r3, [r3]
    ae68:	e3530000 	cmp	r3, #0
    ae6c:	1a00000f 	bne	aeb0 <kmalloc_init_set_start+0x58>
    ae70:	e59f3098 	ldr	r3, [pc, #152]	@ af10 <kmalloc_init_set_start+0xb8>
    ae74:	e3a02001 	mov	r2, #1
    ae78:	e5832000 	str	r2, [r3]
    ae7c:	e3510000 	cmp	r1, #0
    ae80:	0a000010 	beq	aec8 <kmalloc_init_set_start+0x70>
    ae84:	e59f3088 	ldr	r3, [pc, #136]	@ af14 <kmalloc_init_set_start+0xbc>
    ae88:	e5933008 	ldr	r3, [r3, #8]
    ae8c:	e1530000 	cmp	r3, r0
    ae90:	8a000014 	bhi	aee8 <kmalloc_init_set_start+0x90>
    ae94:	e59f3078 	ldr	r3, [pc, #120]	@ af14 <kmalloc_init_set_start+0xbc>
    ae98:	e5830008 	str	r0, [r3, #8]
    ae9c:	e5830004 	str	r0, [r3, #4]
    aea0:	e0800001 	add	r0, r0, r1
    aea4:	e5830000 	str	r0, [r3]
    aea8:	e28dd00c 	add	sp, sp, #12
    aeac:	e49df004 	pop	{pc}		@ (ldr pc, [sp], #4)
    aeb0:	e3a03031 	mov	r3, #49	@ 0x31
    aeb4:	e59f205c 	ldr	r2, [pc, #92]	@ af18 <kmalloc_init_set_start+0xc0>
    aeb8:	e59f105c 	ldr	r1, [pc, #92]	@ af1c <kmalloc_init_set_start+0xc4>
    aebc:	e59f005c 	ldr	r0, [pc, #92]	@ af20 <kmalloc_init_set_start+0xc8>
    aec0:	ebfffd71 	bl	a48c <printk>
    aec4:	ebfffea0 	bl	a94c <clean_reboot>
    aec8:	e59f3054 	ldr	r3, [pc, #84]	@ af24 <kmalloc_init_set_start+0xcc>
    aecc:	e58d3000 	str	r3, [sp]
    aed0:	e3a03036 	mov	r3, #54	@ 0x36
    aed4:	e59f203c 	ldr	r2, [pc, #60]	@ af18 <kmalloc_init_set_start+0xc0>
    aed8:	e59f103c 	ldr	r1, [pc, #60]	@ af1c <kmalloc_init_set_start+0xc4>
    aedc:	e59f0044 	ldr	r0, [pc, #68]	@ af28 <kmalloc_init_set_start+0xd0>
    aee0:	ebfffd69 	bl	a48c <printk>
    aee4:	ebfffe98 	bl	a94c <clean_reboot>
    aee8:	e59f3024 	ldr	r3, [pc, #36]	@ af14 <kmalloc_init_set_start+0xbc>
    aeec:	e5933000 	ldr	r3, [r3]
    aef0:	e58d3004 	str	r3, [sp, #4]
    aef4:	e58d0000 	str	r0, [sp]
    aef8:	e3a0303a 	mov	r3, #58	@ 0x3a
    aefc:	e59f2014 	ldr	r2, [pc, #20]	@ af18 <kmalloc_init_set_start+0xc0>
    af00:	e59f1014 	ldr	r1, [pc, #20]	@ af1c <kmalloc_init_set_start+0xc4>
    af04:	e59f0020 	ldr	r0, [pc, #32]	@ af2c <kmalloc_init_set_start+0xd4>
    af08:	ebfffd5f 	bl	a48c <printk>
    af0c:	ebfffe8e 	bl	a94c <clean_reboot>
    af10:	0000d29c 	.word	0x0000d29c
    af14:	0000d280 	.word	0x0000d280
    af18:	0000c85c 	.word	0x0000c85c
    af1c:	0000c300 	.word	0x0000c300
    af20:	0000c30c 	.word	0x0000c30c
    af24:	0000c340 	.word	0x0000c340
    af28:	0000b4cc 	.word	0x0000b4cc
    af2c:	0000c34c 	.word	0x0000c34c

0000af30 <kmalloc_notzero>:
    af30:	e52de004 	push	{lr}		@ (str lr, [sp, #-4]!)
    af34:	e24dd00c 	sub	sp, sp, #12
    af38:	e3500000 	cmp	r0, #0
    af3c:	0a00000d 	beq	af78 <kmalloc_notzero+0x48>
    af40:	e2800007 	add	r0, r0, #7
    af44:	e3c03007 	bic	r3, r0, #7
    af48:	e59f208c 	ldr	r2, [pc, #140]	@ afdc <kmalloc_notzero+0xac>
    af4c:	e5920008 	ldr	r0, [r2, #8]
    af50:	e3100007 	tst	r0, #7
    af54:	1a00000f 	bne	af98 <kmalloc_notzero+0x68>
    af58:	e0802003 	add	r2, r0, r3
    af5c:	e59f1078 	ldr	r1, [pc, #120]	@ afdc <kmalloc_notzero+0xac>
    af60:	e5812008 	str	r2, [r1, #8]
    af64:	e5911000 	ldr	r1, [r1]
    af68:	e1520001 	cmp	r2, r1
    af6c:	8a000011 	bhi	afb8 <kmalloc_notzero+0x88>
    af70:	e28dd00c 	add	sp, sp, #12
    af74:	e49df004 	pop	{pc}		@ (ldr pc, [sp], #4)
    af78:	e59f3060 	ldr	r3, [pc, #96]	@ afe0 <kmalloc_notzero+0xb0>
    af7c:	e58d3000 	str	r3, [sp]
    af80:	e3a03053 	mov	r3, #83	@ 0x53
    af84:	e59f2058 	ldr	r2, [pc, #88]	@ afe4 <kmalloc_notzero+0xb4>
    af88:	e59f1058 	ldr	r1, [pc, #88]	@ afe8 <kmalloc_notzero+0xb8>
    af8c:	e59f0058 	ldr	r0, [pc, #88]	@ afec <kmalloc_notzero+0xbc>
    af90:	ebfffd3d 	bl	a48c <printk>
    af94:	ebfffe6c 	bl	a94c <clean_reboot>
    af98:	e59f3050 	ldr	r3, [pc, #80]	@ aff0 <kmalloc_notzero+0xc0>
    af9c:	e58d3000 	str	r3, [sp]
    afa0:	e3a03056 	mov	r3, #86	@ 0x56
    afa4:	e59f2038 	ldr	r2, [pc, #56]	@ afe4 <kmalloc_notzero+0xb4>
    afa8:	e59f1038 	ldr	r1, [pc, #56]	@ afe8 <kmalloc_notzero+0xb8>
    afac:	e59f0038 	ldr	r0, [pc, #56]	@ afec <kmalloc_notzero+0xbc>
    afb0:	ebfffd35 	bl	a48c <printk>
    afb4:	ebfffe64 	bl	a94c <clean_reboot>
    afb8:	e0422001 	sub	r2, r2, r1
    afbc:	e58d2004 	str	r2, [sp, #4]
    afc0:	e58d3000 	str	r3, [sp]
    afc4:	e3a0305b 	mov	r3, #91	@ 0x5b
    afc8:	e59f2014 	ldr	r2, [pc, #20]	@ afe4 <kmalloc_notzero+0xb4>
    afcc:	e59f1014 	ldr	r1, [pc, #20]	@ afe8 <kmalloc_notzero+0xb8>
    afd0:	e59f001c 	ldr	r0, [pc, #28]	@ aff4 <kmalloc_notzero+0xc4>
    afd4:	ebfffd2c 	bl	a48c <printk>
    afd8:	ebfffe5b 	bl	a94c <clean_reboot>
    afdc:	0000d280 	.word	0x0000d280
    afe0:	0000c344 	.word	0x0000c344
    afe4:	0000c874 	.word	0x0000c874
    afe8:	0000c300 	.word	0x0000c300
    afec:	0000b4cc 	.word	0x0000b4cc
    aff0:	0000c390 	.word	0x0000c390
    aff4:	0000c3a8 	.word	0x0000c3a8

0000aff8 <kmalloc>:
    aff8:	e92d4030 	push	{r4, r5, lr}
    affc:	e24dd00c 	sub	sp, sp, #12
    b000:	e2504000 	subs	r4, r0, #0
    b004:	0a000008 	beq	b02c <kmalloc+0x34>
    b008:	e1a00004 	mov	r0, r4
    b00c:	ebffffc7 	bl	af30 <kmalloc_notzero>
    b010:	e1a05000 	mov	r5, r0
    b014:	e1a02004 	mov	r2, r4
    b018:	e3a01000 	mov	r1, #0
    b01c:	eb0000db 	bl	b390 <memset>
    b020:	e1a00005 	mov	r0, r5
    b024:	e28dd00c 	add	sp, sp, #12
    b028:	e8bd8030 	pop	{r4, r5, pc}
    b02c:	e59f3018 	ldr	r3, [pc, #24]	@ b04c <kmalloc+0x54>
    b030:	e58d3000 	str	r3, [sp]
    b034:	e3a03062 	mov	r3, #98	@ 0x62
    b038:	e59f2010 	ldr	r2, [pc, #16]	@ b050 <kmalloc+0x58>
    b03c:	e59f1010 	ldr	r1, [pc, #16]	@ b054 <kmalloc+0x5c>
    b040:	e59f0010 	ldr	r0, [pc, #16]	@ b058 <kmalloc+0x60>
    b044:	ebfffd10 	bl	a48c <printk>
    b048:	ebfffe3f 	bl	a94c <clean_reboot>
    b04c:	0000c344 	.word	0x0000c344
    b050:	0000c884 	.word	0x0000c884
    b054:	0000c300 	.word	0x0000c300
    b058:	0000b4cc 	.word	0x0000b4cc

0000b05c <kmalloc_aligned>:
    b05c:	e52de004 	push	{lr}		@ (str lr, [sp, #-4]!)
    b060:	e24dd00c 	sub	sp, sp, #12
    b064:	e3500000 	cmp	r0, #0
    b068:	0a000014 	beq	b0c0 <kmalloc_aligned+0x64>
    b06c:	e2613000 	rsb	r3, r1, #0
    b070:	e1d13003 	bics	r3, r1, r3
    b074:	1a000019 	bne	b0e0 <kmalloc_aligned+0x84>
    b078:	e3510008 	cmp	r1, #8
    b07c:	33a01008 	movcc	r1, #8
    b080:	e59f30b8 	ldr	r3, [pc, #184]	@ b140 <kmalloc_aligned+0xe4>
    b084:	e5932008 	ldr	r2, [r3, #8]
    b088:	e2613000 	rsb	r3, r1, #0
    b08c:	e1d1c003 	bics	ip, r1, r3
    b090:	1a00001a 	bne	b100 <kmalloc_aligned+0xa4>
    b094:	e0822001 	add	r2, r2, r1
    b098:	e2422001 	sub	r2, r2, #1
    b09c:	e0033002 	and	r3, r3, r2
    b0a0:	e2411001 	sub	r1, r1, #1
    b0a4:	e1110003 	tst	r1, r3
    b0a8:	1a00001c 	bne	b120 <kmalloc_aligned+0xc4>
    b0ac:	e59f208c 	ldr	r2, [pc, #140]	@ b140 <kmalloc_aligned+0xe4>
    b0b0:	e5823008 	str	r3, [r2, #8]
    b0b4:	ebffffcf 	bl	aff8 <kmalloc>
    b0b8:	e28dd00c 	add	sp, sp, #12
    b0bc:	e49df004 	pop	{pc}		@ (ldr pc, [sp], #4)
    b0c0:	e59f307c 	ldr	r3, [pc, #124]	@ b144 <kmalloc_aligned+0xe8>
    b0c4:	e58d3000 	str	r3, [sp]
    b0c8:	e3a0306d 	mov	r3, #109	@ 0x6d
    b0cc:	e59f2074 	ldr	r2, [pc, #116]	@ b148 <kmalloc_aligned+0xec>
    b0d0:	e59f1074 	ldr	r1, [pc, #116]	@ b14c <kmalloc_aligned+0xf0>
    b0d4:	e59f0074 	ldr	r0, [pc, #116]	@ b150 <kmalloc_aligned+0xf4>
    b0d8:	ebfffceb 	bl	a48c <printk>
    b0dc:	ebfffe1a 	bl	a94c <clean_reboot>
    b0e0:	e59f306c 	ldr	r3, [pc, #108]	@ b154 <kmalloc_aligned+0xf8>
    b0e4:	e58d3000 	str	r3, [sp]
    b0e8:	e3a0306e 	mov	r3, #110	@ 0x6e
    b0ec:	e59f2054 	ldr	r2, [pc, #84]	@ b148 <kmalloc_aligned+0xec>
    b0f0:	e59f1054 	ldr	r1, [pc, #84]	@ b14c <kmalloc_aligned+0xf0>
    b0f4:	e59f005c 	ldr	r0, [pc, #92]	@ b158 <kmalloc_aligned+0xfc>
    b0f8:	ebfffce3 	bl	a48c <printk>
    b0fc:	ebfffe12 	bl	a94c <clean_reboot>
    b100:	e59f3054 	ldr	r3, [pc, #84]	@ b15c <kmalloc_aligned+0x100>
    b104:	e58d3000 	str	r3, [sp]
    b108:	e3a03011 	mov	r3, #17
    b10c:	e59f204c 	ldr	r2, [pc, #76]	@ b160 <kmalloc_aligned+0x104>
    b110:	e59f1034 	ldr	r1, [pc, #52]	@ b14c <kmalloc_aligned+0xf0>
    b114:	e59f0034 	ldr	r0, [pc, #52]	@ b150 <kmalloc_aligned+0xf4>
    b118:	ebfffcdb 	bl	a48c <printk>
    b11c:	ebfffe0a 	bl	a94c <clean_reboot>
    b120:	e59f303c 	ldr	r3, [pc, #60]	@ b164 <kmalloc_aligned+0x108>
    b124:	e58d3000 	str	r3, [sp]
    b128:	e3a03076 	mov	r3, #118	@ 0x76
    b12c:	e59f2014 	ldr	r2, [pc, #20]	@ b148 <kmalloc_aligned+0xec>
    b130:	e59f1014 	ldr	r1, [pc, #20]	@ b14c <kmalloc_aligned+0xf0>
    b134:	e59f002c 	ldr	r0, [pc, #44]	@ b168 <kmalloc_aligned+0x10c>
    b138:	ebfffcd3 	bl	a48c <printk>
    b13c:	ebfffe02 	bl	a94c <clean_reboot>
    b140:	0000d280 	.word	0x0000d280
    b144:	0000c344 	.word	0x0000c344
    b148:	0000c88c 	.word	0x0000c88c
    b14c:	0000c300 	.word	0x0000c300
    b150:	0000b4cc 	.word	0x0000b4cc
    b154:	0000c430 	.word	0x0000c430
    b158:	0000c3f0 	.word	0x0000c3f0
    b15c:	0000c444 	.word	0x0000c444
    b160:	0000c89c 	.word	0x0000c89c
    b164:	0000c488 	.word	0x0000c488
    b168:	0000c450 	.word	0x0000c450

0000b16c <kfree_all>:
    b16c:	e59f3008 	ldr	r3, [pc, #8]	@ b17c <kfree_all+0x10>
    b170:	e5932004 	ldr	r2, [r3, #4]
    b174:	e5832008 	str	r2, [r3, #8]
    b178:	e12fff1e 	bx	lr
    b17c:	0000d280 	.word	0x0000d280

0000b180 <kfree_pop>:
    b180:	e59f3048 	ldr	r3, [pc, #72]	@ b1d0 <kfree_pop+0x50>
    b184:	e5933004 	ldr	r3, [r3, #4]
    b188:	e1530000 	cmp	r3, r0
    b18c:	8a000006 	bhi	b1ac <kfree_pop+0x2c>
    b190:	e59f3038 	ldr	r3, [pc, #56]	@ b1d0 <kfree_pop+0x50>
    b194:	e5933000 	ldr	r3, [r3]
    b198:	e1530000 	cmp	r3, r0
    b19c:	3a000002 	bcc	b1ac <kfree_pop+0x2c>
    b1a0:	e59f3028 	ldr	r3, [pc, #40]	@ b1d0 <kfree_pop+0x50>
    b1a4:	e5830008 	str	r0, [r3, #8]
    b1a8:	e12fff1e 	bx	lr
    b1ac:	e52de004 	push	{lr}		@ (str lr, [sp, #-4]!)
    b1b0:	e24dd00c 	sub	sp, sp, #12
    b1b4:	e58d0000 	str	r0, [sp]
    b1b8:	e3a03085 	mov	r3, #133	@ 0x85
    b1bc:	e59f2010 	ldr	r2, [pc, #16]	@ b1d4 <kfree_pop+0x54>
    b1c0:	e59f1010 	ldr	r1, [pc, #16]	@ b1d8 <kfree_pop+0x58>
    b1c4:	e59f0010 	ldr	r0, [pc, #16]	@ b1dc <kfree_pop+0x5c>
    b1c8:	ebfffcaf 	bl	a48c <printk>
    b1cc:	ebfffdde 	bl	a94c <clean_reboot>
    b1d0:	0000d280 	.word	0x0000d280
    b1d4:	0000c8a4 	.word	0x0000c8a4
    b1d8:	0000c300 	.word	0x0000c300
    b1dc:	0000c4a4 	.word	0x0000c4a4

0000b1e0 <uart_init>:
    b1e0:	e92d4010 	push	{r4, lr}
    b1e4:	ebfffe66 	bl	ab84 <dev_barrier>
    b1e8:	e3a01002 	mov	r1, #2
    b1ec:	e3a0000e 	mov	r0, #14
    b1f0:	ebfffc60 	bl	a378 <gpio_set_function>
    b1f4:	e3a01002 	mov	r1, #2
    b1f8:	e3a0000f 	mov	r0, #15
    b1fc:	ebfffc5d 	bl	a378 <gpio_set_function>
    b200:	e3a0000e 	mov	r0, #14
    b204:	ebfffc13 	bl	a258 <gpio_set_on>
    b208:	ebfffe5d 	bl	ab84 <dev_barrier>
    b20c:	e59f4064 	ldr	r4, [pc, #100]	@ b278 <uart_init+0x98>
    b210:	e1a00004 	mov	r0, r4
    b214:	ebfff384 	bl	802c <GET32>
    b218:	e3801001 	orr	r1, r0, #1
    b21c:	e1a00004 	mov	r0, r4
    b220:	ebfff37f 	bl	8024 <PUT32>
    b224:	e284405c 	add	r4, r4, #92	@ 0x5c
    b228:	e3a01000 	mov	r1, #0
    b22c:	e1a00004 	mov	r0, r4
    b230:	ebfff37b 	bl	8024 <PUT32>
    b234:	e3a01006 	mov	r1, #6
    b238:	e59f003c 	ldr	r0, [pc, #60]	@ b27c <uart_init+0x9c>
    b23c:	ebfff378 	bl	8024 <PUT32>
    b240:	e3a01000 	mov	r1, #0
    b244:	e59f0034 	ldr	r0, [pc, #52]	@ b280 <uart_init+0xa0>
    b248:	ebfff375 	bl	8024 <PUT32>
    b24c:	e3a01003 	mov	r1, #3
    b250:	e59f002c 	ldr	r0, [pc, #44]	@ b284 <uart_init+0xa4>
    b254:	ebfff372 	bl	8024 <PUT32>
    b258:	e59f1028 	ldr	r1, [pc, #40]	@ b288 <uart_init+0xa8>
    b25c:	e59f0028 	ldr	r0, [pc, #40]	@ b28c <uart_init+0xac>
    b260:	ebfff36f 	bl	8024 <PUT32>
    b264:	e3a01003 	mov	r1, #3
    b268:	e1a00004 	mov	r0, r4
    b26c:	ebfff36c 	bl	8024 <PUT32>
    b270:	ebfffe43 	bl	ab84 <dev_barrier>
    b274:	e8bd8010 	pop	{r4, pc}
    b278:	20215004 	.word	0x20215004
    b27c:	20215048 	.word	0x20215048
    b280:	20215044 	.word	0x20215044
    b284:	2021504c 	.word	0x2021504c
    b288:	0000010f 	.word	0x0000010f
    b28c:	20215068 	.word	0x20215068

0000b290 <uart_can_put8>:
    b290:	e92d4010 	push	{r4, lr}
    b294:	e59f0008 	ldr	r0, [pc, #8]	@ b2a4 <uart_can_put8+0x14>
    b298:	ebfff363 	bl	802c <GET32>
    b29c:	e2000002 	and	r0, r0, #2
    b2a0:	e8bd8010 	pop	{r4, pc}
    b2a4:	20215064 	.word	0x20215064

0000b2a8 <uart_put8>:
    b2a8:	e92d4010 	push	{r4, lr}
    b2ac:	e1a04000 	mov	r4, r0
    b2b0:	ebfffff6 	bl	b290 <uart_can_put8>
    b2b4:	e3500000 	cmp	r0, #0
    b2b8:	0afffffc 	beq	b2b0 <uart_put8+0x8>
    b2bc:	e1a01004 	mov	r1, r4
    b2c0:	e59f0008 	ldr	r0, [pc, #8]	@ b2d0 <uart_put8+0x28>
    b2c4:	ebfff356 	bl	8024 <PUT32>
    b2c8:	e3a00000 	mov	r0, #0
    b2cc:	e8bd8010 	pop	{r4, pc}
    b2d0:	20215040 	.word	0x20215040

0000b2d4 <uart_has_data>:
    b2d4:	e92d4010 	push	{r4, lr}
    b2d8:	e59f0008 	ldr	r0, [pc, #8]	@ b2e8 <uart_has_data+0x14>
    b2dc:	ebfff352 	bl	802c <GET32>
    b2e0:	e2000001 	and	r0, r0, #1
    b2e4:	e8bd8010 	pop	{r4, pc}
    b2e8:	20215064 	.word	0x20215064

0000b2ec <uart_get8>:
    b2ec:	e92d4010 	push	{r4, lr}
    b2f0:	ebfffe23 	bl	ab84 <dev_barrier>
    b2f4:	ebfffff6 	bl	b2d4 <uart_has_data>
    b2f8:	e3500000 	cmp	r0, #0
    b2fc:	0afffffc 	beq	b2f4 <uart_get8+0x8>
    b300:	e59f0008 	ldr	r0, [pc, #8]	@ b310 <uart_get8+0x24>
    b304:	ebfff348 	bl	802c <GET32>
    b308:	e6ef0070 	uxtb	r0, r0
    b30c:	e8bd8010 	pop	{r4, pc}
    b310:	20215040 	.word	0x20215040

0000b314 <uart_get8_async>:
    b314:	e92d4010 	push	{r4, lr}
    b318:	ebffffed 	bl	b2d4 <uart_has_data>
    b31c:	e3500000 	cmp	r0, #0
    b320:	0a000001 	beq	b32c <uart_get8_async+0x18>
    b324:	ebfffff0 	bl	b2ec <uart_get8>
    b328:	e8bd8010 	pop	{r4, pc}
    b32c:	e3e00000 	mvn	r0, #0
    b330:	e8bd8010 	pop	{r4, pc}

0000b334 <uart_tx_is_empty>:
    b334:	e92d4010 	push	{r4, lr}
    b338:	e59f0008 	ldr	r0, [pc, #8]	@ b348 <uart_tx_is_empty+0x14>
    b33c:	ebfff33a 	bl	802c <GET32>
    b340:	e2000040 	and	r0, r0, #64	@ 0x40
    b344:	e8bd8010 	pop	{r4, pc}
    b348:	20215054 	.word	0x20215054

0000b34c <uart_flush_tx>:
    b34c:	e92d4010 	push	{r4, lr}
    b350:	ebfffff7 	bl	b334 <uart_tx_is_empty>
    b354:	e3500000 	cmp	r0, #0
    b358:	0afffffc 	beq	b350 <uart_flush_tx+0x4>
    b35c:	e8bd8010 	pop	{r4, pc}

0000b360 <uart_disable>:
    b360:	e92d4010 	push	{r4, lr}
    b364:	ebfffe06 	bl	ab84 <dev_barrier>
    b368:	ebfffff7 	bl	b34c <uart_flush_tx>
    b36c:	e59f4018 	ldr	r4, [pc, #24]	@ b38c <uart_disable+0x2c>
    b370:	e1a00004 	mov	r0, r4
    b374:	ebfff32c 	bl	802c <GET32>
    b378:	e3c01001 	bic	r1, r0, #1
    b37c:	e1a00004 	mov	r0, r4
    b380:	ebfff327 	bl	8024 <PUT32>
    b384:	ebfffdfe 	bl	ab84 <dev_barrier>
    b388:	e8bd8010 	pop	{r4, pc}
    b38c:	20215004 	.word	0x20215004

0000b390 <memset>:
    b390:	e3520000 	cmp	r2, #0
    b394:	012fff1e 	bxeq	lr
    b398:	e3510000 	cmp	r1, #0
    b39c:	1a000007 	bne	b3c0 <memset+0x30>
    b3a0:	e3100007 	tst	r0, #7
    b3a4:	1a000001 	bne	b3b0 <memset+0x20>
    b3a8:	e3120007 	tst	r2, #7
    b3ac:	0a000005 	beq	b3c8 <memset+0x38>
    b3b0:	e3100003 	tst	r0, #3
    b3b4:	1a000001 	bne	b3c0 <memset+0x30>
    b3b8:	e3120003 	tst	r2, #3
    b3bc:	0a00000d 	beq	b3f8 <memset+0x68>
    b3c0:	e0802002 	add	r2, r0, r2
    b3c4:	ea000014 	b	b41c <memset+0x8c>
    b3c8:	e1a021a2 	lsr	r2, r2, #3
    b3cc:	ea000005 	b	b3e8 <memset+0x58>
    b3d0:	e1a03000 	mov	r3, r0
    b3d4:	e1a02fc1 	asr	r2, r1, #31
    b3d8:	e4831008 	str	r1, [r3], #8
    b3dc:	e5802004 	str	r2, [r0, #4]
    b3e0:	e1a00003 	mov	r0, r3
    b3e4:	e1a0200c 	mov	r2, ip
    b3e8:	e242c001 	sub	ip, r2, #1
    b3ec:	e3520000 	cmp	r2, #0
    b3f0:	1afffff6 	bne	b3d0 <memset+0x40>
    b3f4:	e12fff1e 	bx	lr
    b3f8:	e1a02122 	lsr	r2, r2, #2
    b3fc:	ea000001 	b	b408 <memset+0x78>
    b400:	e4801004 	str	r1, [r0], #4
    b404:	e1a02003 	mov	r2, r3
    b408:	e2423001 	sub	r3, r2, #1
    b40c:	e3520000 	cmp	r2, #0
    b410:	1afffffa 	bne	b400 <memset+0x70>
    b414:	e12fff1e 	bx	lr
    b418:	e4c01001 	strb	r1, [r0], #1
    b41c:	e1500002 	cmp	r0, r2
    b420:	3afffffc 	bcc	b418 <memset+0x88>
    b424:	e12fff1e 	bx	lr

0000b428 <putk>:
    b428:	e92d4010 	push	{r4, lr}
    b42c:	e1a04000 	mov	r4, r0
    b430:	ea000003 	b	b444 <putk+0x1c>
    b434:	e59f301c 	ldr	r3, [pc, #28]	@ b458 <putk+0x30>
    b438:	e5933000 	ldr	r3, [r3]
    b43c:	e12fff33 	blx	r3
    b440:	e2844001 	add	r4, r4, #1
    b444:	e5d40000 	ldrb	r0, [r4]
    b448:	e3500000 	cmp	r0, #0
    b44c:	1afffff8 	bne	b434 <putk+0xc>
    b450:	e3a00001 	mov	r0, #1
    b454:	e8bd8010 	pop	{r4, pc}
    b458:	0000d27c 	.word	0x0000d27c

0000b45c <reboot_callout>:
    b45c:	e12fff1e 	bx	lr
